ARM GAS  C:\Users\jimvr\AppData\Local\Temp\cc12vSNJ.s 			page 1


   1              		.syntax unified
   2              		.cpu cortex-m3
   3              		.fpu softvfp
   4              		.eabi_attribute 20, 1
   5              		.eabi_attribute 21, 1
   6              		.eabi_attribute 23, 3
   7              		.eabi_attribute 24, 1
   8              		.eabi_attribute 25, 1
   9              		.eabi_attribute 26, 1
  10              		.eabi_attribute 30, 1
  11              		.eabi_attribute 34, 1
  12              		.eabi_attribute 18, 4
  13              		.thumb
  14              		.syntax unified
  15              		.file	"dmx.c"
  16              		.text
  17              	.Ltext0:
  18              		.cfi_sections	.debug_frame
  19              		.section	.text.transmitResponse,"ax",%progbits
  20              		.align	2
  21              		.global	transmitResponse
  22              		.thumb
  23              		.thumb_func
  24              		.type	transmitResponse, %function
  25              	transmitResponse:
  26              	.LFB0:
  27              		.file 1 "dmx.c"
   1:dmx.c         **** /*
   2:dmx.c         **** 
   3:dmx.c         ****     dmx.c
   4:dmx.c         ****     *****************************************************************************
   5:dmx.c         ****     * Copyright (2014 - 2019) The NED Group
   6:dmx.c         ****     ******************************************************************************
   7:dmx.c         ****     see main.c for full disclaimer
   8:dmx.c         ****     
   9:dmx.c         **** */
  10:dmx.c         ****     
  11:dmx.c         **** #include "RDM_Header.h"
  12:dmx.c         **** 
  13:dmx.c         **** 
  14:dmx.c         **** // DMX timers for cable on/off glitches
  15:dmx.c         **** extern uint16 uiDMXLossTimer;
  16:dmx.c         **** extern uint16 uiDMXPresentTimer;
  17:dmx.c         **** extern uint16 uiwDMXLossTimer;
  18:dmx.c         **** extern uint16 uiwDMXPresentTimer;
  19:dmx.c         **** //
  20:dmx.c         **** extern structInfo Info;
  21:dmx.c         **** extern structRDMPacket RDMResPacket;
  22:dmx.c         **** extern structRDM RDM;
  23:dmx.c         **** 
  24:dmx.c         **** extern volatile uint8 byDMXGood;
  25:dmx.c         **** extern volatile uint8 byDMXData[];
  26:dmx.c         **** extern uint8 bySlaveUnitID;
  27:dmx.c         **** 
  28:dmx.c         **** 
  29:dmx.c         **** //write a function to handle RDM response transmission
  30:dmx.c         **** //note the optional break
ARM GAS  C:\Users\jimvr\AppData\Local\Temp\cc12vSNJ.s 			page 2


  31:dmx.c         **** void transmitResponse(const uint8 *data, uint8 length, uint8 isbreak)
  32:dmx.c         **** {
  28              		.loc 1 32 0
  29              		.cfi_startproc
  30              		@ args = 0, pretend = 0, frame = 0
  31              		@ frame_needed = 0, uses_anonymous_args = 0
  32              	.LVL0:
  33 0000 70B5     		push	{r4, r5, r6, lr}
  34              		.cfi_def_cfa_offset 16
  35              		.cfi_offset 4, -16
  36              		.cfi_offset 5, -12
  37              		.cfi_offset 6, -8
  38              		.cfi_offset 14, -4
  39 0002 0446     		mov	r4, r0
  40 0004 0D46     		mov	r5, r1
  41 0006 1646     		mov	r6, r2
  33:dmx.c         ****     DMX_Control_Reg_Write(0x02);
  42              		.loc 1 33 0
  43 0008 0220     		movs	r0, #2
  44              	.LVL1:
  45 000a FFF7FEFF 		bl	DMX_Control_Reg_Write
  46              	.LVL2:
  34:dmx.c         ****         
  35:dmx.c         **** 	if(isbreak)
  47              		.loc 1 35 0
  48 000e 2EB1     		cbz	r6, .L2
  36:dmx.c         **** 	{
  37:dmx.c         ****       	DMX_Control_Reg_Write(0x03);
  49              		.loc 1 37 0
  50 0010 0320     		movs	r0, #3
  51 0012 FFF7FEFF 		bl	DMX_Control_Reg_Write
  52              	.LVL3:
  38:dmx.c         **** 		CyDelayUs(125);
  53              		.loc 1 38 0
  54 0016 7D20     		movs	r0, #125
  55 0018 FFF7FEFF 		bl	CyDelayUs
  56              	.LVL4:
  57              	.L2:
  39:dmx.c         **** 	}
  40:dmx.c         **** 
  41:dmx.c         **** 	DMX_Control_Reg_Write(0x02);
  58              		.loc 1 41 0
  59 001c 0220     		movs	r0, #2
  60 001e FFF7FEFF 		bl	DMX_Control_Reg_Write
  61              	.LVL5:
  42:dmx.c         **** 	CyDelayUs(16);
  62              		.loc 1 42 0
  63 0022 1020     		movs	r0, #16
  64 0024 FFF7FEFF 		bl	CyDelayUs
  65              	.LVL6:
  43:dmx.c         **** 
  44:dmx.c         **** 	DMX_UART_PutArray(data, length);
  66              		.loc 1 44 0
  67 0028 2946     		mov	r1, r5
  68 002a 2046     		mov	r0, r4
  69 002c FFF7FEFF 		bl	DMX_UART_PutArray
  70              	.LVL7:
ARM GAS  C:\Users\jimvr\AppData\Local\Temp\cc12vSNJ.s 			page 3


  71              	.L3:
  45:dmx.c         **** 	while (!(DMX_UART_TXSTATUS & DMX_UART_TX_STS_COMPLETE));
  72              		.loc 1 45 0 discriminator 1
  73 0030 064B     		ldr	r3, .L5
  74 0032 1B78     		ldrb	r3, [r3]	@ zero_extendqisi2
  75 0034 064A     		ldr	r2, .L5+4
  76 0036 1278     		ldrb	r2, [r2]	@ zero_extendqisi2
  77 0038 1A42     		tst	r2, r3
  78 003a F9D0     		beq	.L3
  46:dmx.c         **** 	CyDelayUs(8);
  79              		.loc 1 46 0
  80 003c 0820     		movs	r0, #8
  81 003e FFF7FEFF 		bl	CyDelayUs
  82              	.LVL8:
  47:dmx.c         **** 
  48:dmx.c         **** 	DMX_Control_Reg_Write(0x00);
  83              		.loc 1 48 0
  84 0042 0020     		movs	r0, #0
  85 0044 FFF7FEFF 		bl	DMX_Control_Reg_Write
  86              	.LVL9:
  87 0048 70BD     		pop	{r4, r5, r6, pc}
  88              	.LVL10:
  89              	.L6:
  90 004a 00BF     		.align	2
  91              	.L5:
  92 004c 00000000 		.word	DMX_UART_TXSTATUS
  93 0050 00000000 		.word	DMX_UART_TX_STS_COMPLETE
  94              		.cfi_endproc
  95              	.LFE0:
  96              		.size	transmitResponse, .-transmitResponse
  97              		.section	.text.DMXRxISRHandler,"ax",%progbits
  98              		.align	2
  99              		.global	DMXRxISRHandler
 100              		.thumb
 101              		.thumb_func
 102              		.type	DMXRxISRHandler, %function
 103              	DMXRxISRHandler:
 104              	.LFB1:
  49:dmx.c         **** }
  50:dmx.c         **** 
  51:dmx.c         **** 
  52:dmx.c         **** #define CHECK_FRAMES 4
  53:dmx.c         **** #define DMX_BUFFER_LEN (NUMCHANNELS*2)
  54:dmx.c         **** 
  55:dmx.c         **** #define SC_DMX 0x00
  56:dmx.c         **** #define SC_RDM 0xCC
  57:dmx.c         **** 
  58:dmx.c         **** // so that we can use the RDM routine for either port
  59:dmx.c         **** void (*const PWM_ADIM_WriteCompare[NUMCHANNELS]) (uint16_t) = {PWM_ADIM_1_WriteCompare1, PWM_ADIM_1
  60:dmx.c         ****                                                                PWM_BOTHDIM5_WriteCompare1, PWM_BOTH
  61:dmx.c         **** 
  62:dmx.c         **** CY_ISR(DMXRxISRHandler)
  63:dmx.c         **** {
 105              		.loc 1 63 0
 106              		.cfi_startproc
 107              		@ args = 0, pretend = 0, frame = 0
 108              		@ frame_needed = 0, uses_anonymous_args = 0
ARM GAS  C:\Users\jimvr\AppData\Local\Temp\cc12vSNJ.s 			page 4


 109 0000 10B5     		push	{r4, lr}
 110              		.cfi_def_cfa_offset 8
 111              		.cfi_offset 4, -8
 112              		.cfi_offset 14, -4
  64:dmx.c         **** 	static uint8 data_buffer[DMX_BUFFER_LEN] = {};
  65:dmx.c         **** 	static size_t data_idx = 0;
  66:dmx.c         **** 	
  67:dmx.c         **** 	static enum {e_IDLE, e_START, e_DATA, e_RDM} state = e_IDLE;
  68:dmx.c         **** 	if (DMX_UART_RXSTATUS & DMX_UART_RX_STS_STOP_ERROR) {
 113              		.loc 1 68 0
 114 0002 494B     		ldr	r3, .L31
 115 0004 1B78     		ldrb	r3, [r3]	@ zero_extendqisi2
 116 0006 494A     		ldr	r2, .L31+4
 117 0008 1278     		ldrb	r2, [r2]	@ zero_extendqisi2
 118 000a 1A42     		tst	r2, r3
 119 000c 00F08580 		beq	.L8
 120              	.LBB2:
  69:dmx.c         **** 		static uint16 check_frame[CHECK_FRAMES] = {};
  70:dmx.c         **** 		static uint8 check_idx = 0;
  71:dmx.c         **** 		
  72:dmx.c         **** 		check_frame[check_idx++] = data_idx;
 121              		.loc 1 72 0
 122 0010 4749     		ldr	r1, .L31+8
 123 0012 0A78     		ldrb	r2, [r1]	@ zero_extendqisi2
 124 0014 531C     		adds	r3, r2, #1
 125 0016 DBB2     		uxtb	r3, r3
 126 0018 0B70     		strb	r3, [r1]
 127 001a 01EB4202 		add	r2, r1, r2, lsl #1
 128 001e C968     		ldr	r1, [r1, #12]
 129 0020 9180     		strh	r1, [r2, #4]	@ movhi
  73:dmx.c         **** 		if (check_idx >= CHECK_FRAMES) check_idx = 0;
 130              		.loc 1 73 0
 131 0022 032B     		cmp	r3, #3
 132 0024 02D9     		bls	.L9
 133              		.loc 1 73 0 is_stmt 0 discriminator 1
 134 0026 0022     		movs	r2, #0
 135 0028 414B     		ldr	r3, .L31+8
 136 002a 1A70     		strb	r2, [r3]
 137              	.L9:
 138              	.LVL11:
  74:dmx.c         **** 		
  75:dmx.c         **** 		bool check = true;
  76:dmx.c         **** 		uint16 check_val = check_frame[0];
 139              		.loc 1 76 0 is_stmt 1
 140 002c 404B     		ldr	r3, .L31+8
 141 002e 9888     		ldrh	r0, [r3, #4]
 142              	.LVL12:
 143              	.LBB3:
  77:dmx.c         **** 		for (uint8 i=1; i<CHECK_FRAMES; i++) if (check_frame[i] != check_val)
 144              		.loc 1 77 0
 145 0030 0123     		movs	r3, #1
 146              	.LBE3:
  75:dmx.c         **** 		uint16 check_val = check_frame[0];
 147              		.loc 1 75 0
 148 0032 1946     		mov	r1, r3
 149              	.LBB4:
 150              		.loc 1 77 0
ARM GAS  C:\Users\jimvr\AppData\Local\Temp\cc12vSNJ.s 			page 5


 151 0034 08E0     		b	.L10
 152              	.LVL13:
 153              	.L12:
 154              		.loc 1 77 0 is_stmt 0 discriminator 4
 155 0036 3E4A     		ldr	r2, .L31+8
 156 0038 02EB4302 		add	r2, r2, r3, lsl #1
 157 003c 9288     		ldrh	r2, [r2, #4]
 158 003e 9042     		cmp	r0, r2
 159 0040 00D0     		beq	.L11
  78:dmx.c         **** 			check = false;
 160              		.loc 1 78 0 is_stmt 1
 161 0042 0021     		movs	r1, #0
 162              	.LVL14:
 163              	.L11:
  77:dmx.c         **** 		for (uint8 i=1; i<CHECK_FRAMES; i++) if (check_frame[i] != check_val)
 164              		.loc 1 77 0 discriminator 2
 165 0044 0133     		adds	r3, r3, #1
 166              	.LVL15:
 167 0046 DBB2     		uxtb	r3, r3
 168              	.LVL16:
 169              	.L10:
  77:dmx.c         **** 		for (uint8 i=1; i<CHECK_FRAMES; i++) if (check_frame[i] != check_val)
 170              		.loc 1 77 0 is_stmt 0 discriminator 3
 171 0048 032B     		cmp	r3, #3
 172 004a F4D9     		bls	.L12
 173              	.LBE4:
  79:dmx.c         **** 		
  80:dmx.c         **** 		if (check) 
 174              		.loc 1 80 0 is_stmt 1
 175 004c 41B1     		cbz	r1, .L13
 176              	.LBB5:
  81:dmx.c         ****         {
  82:dmx.c         **** 			memcpy((uint8 *)byDMXData, data_buffer, (NUMCHANNELS*2));
 177              		.loc 1 82 0
 178 004e 394C     		ldr	r4, .L31+12
 179 0050 394B     		ldr	r3, .L31+16
 180              	.LVL17:
 181 0052 07CB     		ldmia	r3!, {r0, r1, r2}
 182              	.LVL18:
 183 0054 2060     		str	r0, [r4]	@ unaligned
 184 0056 6160     		str	r1, [r4, #4]	@ unaligned
 185 0058 A260     		str	r2, [r4, #8]	@ unaligned
  83:dmx.c         **** 		    byDMXGood = true;
 186              		.loc 1 83 0
 187 005a 0122     		movs	r2, #1
 188 005c 374B     		ldr	r3, .L31+20
 189 005e 1A70     		strb	r2, [r3]
 190              	.L13:
 191              	.LBE5:
  84:dmx.c         **** 		}
  85:dmx.c         **** 		
  86:dmx.c         **** 		data_idx = 0;
 192              		.loc 1 86 0
 193 0060 334B     		ldr	r3, .L31+8
 194 0062 0022     		movs	r2, #0
 195 0064 DA60     		str	r2, [r3, #12]
  87:dmx.c         **** 		state = e_START;
ARM GAS  C:\Users\jimvr\AppData\Local\Temp\cc12vSNJ.s 			page 6


 196              		.loc 1 87 0
 197 0066 0122     		movs	r2, #1
 198 0068 1A77     		strb	r2, [r3, #28]
  88:dmx.c         **** 		DMX_UART_ClearRxBuffer();
 199              		.loc 1 88 0
 200 006a FFF7FEFF 		bl	DMX_UART_ClearRxBuffer
 201              	.LVL19:
  89:dmx.c         **** 		RDM_ResetState();
 202              		.loc 1 89 0
 203 006e FFF7FEFF 		bl	RDM_ResetState
 204              	.LVL20:
 205              	.LBE2:
 206 0072 10BD     		pop	{r4, pc}
 207              	.L27:
 208              	.LBB6:
  90:dmx.c         **** 	} 
  91:dmx.c         ****     else while (DMX_UART_RXSTATUS & DMX_UART_RX_STS_FIFO_NOTEMPTY) 
  92:dmx.c         ****     {
  93:dmx.c         **** 		uint8 data = DMX_UART_RXDATA;
 209              		.loc 1 93 0
 210 0074 324B     		ldr	r3, .L31+24
 211 0076 1878     		ldrb	r0, [r3]	@ zero_extendqisi2
 212 0078 C0B2     		uxtb	r0, r0
 213              	.LVL21:
  94:dmx.c         **** 			
  95:dmx.c         **** 		switch (state)
 214              		.loc 1 95 0
 215 007a 2D4B     		ldr	r3, .L31+8
 216 007c 1B7F     		ldrb	r3, [r3, #28]	@ zero_extendqisi2
 217 007e 022B     		cmp	r3, #2
 218 0080 3AD0     		beq	.L29
 219 0082 032B     		cmp	r3, #3
 220 0084 3CD0     		beq	.L17
 221 0086 012B     		cmp	r3, #1
 222 0088 43D1     		bne	.L15
  96:dmx.c         ****         {
  97:dmx.c         **** 		    case e_IDLE:
  98:dmx.c         ****             default:
  99:dmx.c         ****             break;
 100:dmx.c         **** 			
 101:dmx.c         **** 		    case e_START:
 102:dmx.c         ****     			if (data == SC_DMX)
 223              		.loc 1 102 0
 224 008a 18B9     		cbnz	r0, .L19
 103:dmx.c         ****                     state = e_DATA;
 225              		.loc 1 103 0
 226 008c 0222     		movs	r2, #2
 227 008e 284B     		ldr	r3, .L31+8
 228 0090 1A77     		strb	r2, [r3, #28]
 229 0092 3EE0     		b	.L15
 230              	.L19:
 104:dmx.c         ****     			else if (data == SC_RDM)
 231              		.loc 1 104 0
 232 0094 CC28     		cmp	r0, #204
 233 0096 03D1     		bne	.L20
 105:dmx.c         ****                     state = e_RDM;
 234              		.loc 1 105 0
ARM GAS  C:\Users\jimvr\AppData\Local\Temp\cc12vSNJ.s 			page 7


 235 0098 0322     		movs	r2, #3
 236 009a 254B     		ldr	r3, .L31+8
 237 009c 1A77     		strb	r2, [r3, #28]
 238 009e 38E0     		b	.L15
 239              	.L20:
 106:dmx.c         ****     			else
 107:dmx.c         ****                     state = e_IDLE;
 240              		.loc 1 107 0
 241 00a0 0022     		movs	r2, #0
 242 00a2 234B     		ldr	r3, .L31+8
 243 00a4 1A77     		strb	r2, [r3, #28]
 244 00a6 34E0     		b	.L15
 245              	.LVL22:
 246              	.L25:
 247              	.LBB7:
 108:dmx.c         **** 			break;
 109:dmx.c         **** 			
 110:dmx.c         ****     		case e_DATA:
 111:dmx.c         **** 	    		for (uint8 i=0; i<NUMCHANNELS; i++)
 112:dmx.c         ****                 {
 113:dmx.c         ****                     // 8 bit values
 114:dmx.c         ****                     if(RDM.stRDMPersonality == 1 || RDM.stRDMPersonality == 3)
 248              		.loc 1 114 0
 249 00a8 264A     		ldr	r2, .L31+28
 250 00aa 127A     		ldrb	r2, [r2, #8]	@ zero_extendqisi2
 251 00ac 012A     		cmp	r2, #1
 252 00ae 01D0     		beq	.L21
 253              		.loc 1 114 0 is_stmt 0 discriminator 1
 254 00b0 032A     		cmp	r2, #3
 255 00b2 0AD1     		bne	.L22
 256              	.L21:
 115:dmx.c         ****                     {
 116:dmx.c         ****                         if (Info.uiDMXChannel[i] == data_idx)
 257              		.loc 1 116 0 is_stmt 1
 258 00b4 244A     		ldr	r2, .L31+32
 259 00b6 32F81310 		ldrh	r1, [r2, r3, lsl #1]	@ unaligned
 260 00ba 1D4A     		ldr	r2, .L31+8
 261 00bc D268     		ldr	r2, [r2, #12]
 262 00be 9142     		cmp	r1, r2
 263 00c0 17D1     		bne	.L23
 117:dmx.c         ****                             data_buffer[i] = data;
 264              		.loc 1 117 0
 265 00c2 1B4A     		ldr	r2, .L31+8
 266 00c4 1A44     		add	r2, r2, r3
 267 00c6 1074     		strb	r0, [r2, #16]
 268 00c8 13E0     		b	.L23
 269              	.L22:
 118:dmx.c         ****                     }
 119:dmx.c         ****                     // 16-bit values
 120:dmx.c         ****                     else
 121:dmx.c         ****                     {
 122:dmx.c         ****                         if (Info.uiDMXChannel[i] == data_idx) 
 270              		.loc 1 122 0
 271 00ca 1F4A     		ldr	r2, .L31+32
 272 00cc 32F81320 		ldrh	r2, [r2, r3, lsl #1]	@ unaligned
 273 00d0 1749     		ldr	r1, .L31+8
 274 00d2 C968     		ldr	r1, [r1, #12]
ARM GAS  C:\Users\jimvr\AppData\Local\Temp\cc12vSNJ.s 			page 8


 275 00d4 8A42     		cmp	r2, r1
 276 00d6 04D1     		bne	.L24
 123:dmx.c         ****                             data_buffer[i*2] = data;
 277              		.loc 1 123 0
 278 00d8 154A     		ldr	r2, .L31+8
 279 00da 02EB4302 		add	r2, r2, r3, lsl #1
 280 00de 1074     		strb	r0, [r2, #16]
 281 00e0 07E0     		b	.L23
 282              	.L24:
 124:dmx.c         ****                         else if (Info.uiDMXChannel[i] + 1 == data_idx) 
 283              		.loc 1 124 0
 284 00e2 0132     		adds	r2, r2, #1
 285 00e4 9142     		cmp	r1, r2
 286 00e6 04D1     		bne	.L23
 125:dmx.c         ****                             data_buffer[(i*2)+1] = data;
 287              		.loc 1 125 0
 288 00e8 5C00     		lsls	r4, r3, #1
 289 00ea 0134     		adds	r4, r4, #1
 290 00ec 104A     		ldr	r2, .L31+8
 291 00ee 1444     		add	r4, r4, r2
 292 00f0 2074     		strb	r0, [r4, #16]
 293              	.L23:
 111:dmx.c         ****                 {
 294              		.loc 1 111 0 discriminator 2
 295 00f2 0133     		adds	r3, r3, #1
 296              	.LVL23:
 297 00f4 DBB2     		uxtb	r3, r3
 298              	.LVL24:
 299 00f6 00E0     		b	.L16
 300              	.LVL25:
 301              	.L29:
 302              	.LBE7:
  95:dmx.c         ****         {
 303              		.loc 1 95 0
 304 00f8 0023     		movs	r3, #0
 305              	.L16:
 306              	.LVL26:
 307              	.LBB8:
 111:dmx.c         ****                 {
 308              		.loc 1 111 0 discriminator 1
 309 00fa 052B     		cmp	r3, #5
 310 00fc D4D9     		bls	.L25
 311 00fe 08E0     		b	.L15
 312              	.LVL27:
 313              	.L17:
 314              	.LBE8:
 126:dmx.c         ****                     }
 127:dmx.c         ****                 }
 128:dmx.c         **** 			break;
 129:dmx.c         **** 			
 130:dmx.c         ****     		case e_RDM:
 131:dmx.c         **** 	    		if (!IsSlave)
 315              		.loc 1 131 0
 316 0100 124B     		ldr	r3, .L31+36
 317 0102 1B78     		ldrb	r3, [r3]	@ zero_extendqisi2
 318 0104 0BB9     		cbnz	r3, .L26
 132:dmx.c         ****                     RDM_AcceptByte(data);
ARM GAS  C:\Users\jimvr\AppData\Local\Temp\cc12vSNJ.s 			page 9


 319              		.loc 1 132 0
 320 0106 FFF7FEFF 		bl	RDM_AcceptByte
 321              	.LVL28:
 322              	.L26:
 133:dmx.c         ****                 
 134:dmx.c         **** 			    uiDMXLossTimer = DMXLOSSTIME;
 323              		.loc 1 134 0
 324 010a 4FF4FA72 		mov	r2, #500
 325 010e 104B     		ldr	r3, .L31+40
 326 0110 1A80     		strh	r2, [r3]	@ movhi
 327              	.L15:
 135:dmx.c         **** 			break;
 136:dmx.c         **** 		}
 137:dmx.c         **** 		
 138:dmx.c         **** 		data_idx++;
 328              		.loc 1 138 0
 329 0112 074A     		ldr	r2, .L31+8
 330 0114 D368     		ldr	r3, [r2, #12]
 331 0116 0133     		adds	r3, r3, #1
 332 0118 D360     		str	r3, [r2, #12]
 333              	.L8:
 334              	.LBE6:
  91:dmx.c         ****     {
 335              		.loc 1 91 0
 336 011a 034B     		ldr	r3, .L31
 337 011c 1B78     		ldrb	r3, [r3]	@ zero_extendqisi2
 338 011e 0D4A     		ldr	r2, .L31+44
 339 0120 1278     		ldrb	r2, [r2]	@ zero_extendqisi2
 340 0122 1A42     		tst	r2, r3
 341 0124 A6D1     		bne	.L27
 342 0126 10BD     		pop	{r4, pc}
 343              	.L32:
 344              		.align	2
 345              	.L31:
 346 0128 00000000 		.word	DMX_UART_RXSTATUS
 347 012c 00000000 		.word	DMX_UART_RX_STS_STOP_ERROR
 348 0130 00000000 		.word	.LANCHOR0
 349 0134 00000000 		.word	byDMXData
 350 0138 10000000 		.word	.LANCHOR0+16
 351 013c 00000000 		.word	byDMXGood
 352 0140 00000000 		.word	DMX_UART_RXDATA
 353 0144 00000000 		.word	RDM
 354 0148 00000000 		.word	Info
 355 014c 00000000 		.word	IsSlave
 356 0150 00000000 		.word	uiDMXLossTimer
 357 0154 00000000 		.word	DMX_UART_RX_STS_FIFO_NOTEMPTY
 358              		.cfi_endproc
 359              	.LFE1:
 360              		.size	DMXRxISRHandler, .-DMXRxISRHandler
 361              		.global	PWM_ADIM_WriteCompare
 362              		.comm	DMX_UART_RXDATA,1,1
 363              		.comm	DMX_UART_RX_STS_FIFO_NOTEMPTY,1,1
 364              		.comm	DMX_UART_RX_STS_STOP_ERROR,1,1
 365              		.comm	DMX_UART_RXSTATUS,1,1
 366              		.comm	DMX_UART_TX_STS_COMPLETE,1,1
 367              		.comm	DMX_UART_TXSTATUS,1,1
 368              		.comm	IsSlave,1,1
ARM GAS  C:\Users\jimvr\AppData\Local\Temp\cc12vSNJ.s 			page 10


 369              		.comm	isInTempFault,1,1
 370              		.comm	uiTempFaultCount,4,4
 371              		.comm	structeeprom,2,4
 372              		.section	.rodata
 373              		.align	2
 374              		.type	PWM_ADIM_WriteCompare, %object
 375              		.size	PWM_ADIM_WriteCompare, 24
 376              	PWM_ADIM_WriteCompare:
 377 0000 00000000 		.word	PWM_ADIM_1_WriteCompare1
 378 0004 00000000 		.word	PWM_ADIM_1_WriteCompare2
 379 0008 00000000 		.word	PWM_ADIM_2_WriteCompare1
 380 000c 00000000 		.word	PWM_ADIM_2_WriteCompare2
 381 0010 00000000 		.word	PWM_BOTHDIM5_WriteCompare1
 382 0014 00000000 		.word	PWM_BOTHDIM6_WriteCompare1
 383              		.bss
 384              		.align	2
 385              		.set	.LANCHOR0,. + 0
 386              		.type	check_idx.4580, %object
 387              		.size	check_idx.4580, 1
 388              	check_idx.4580:
 389 0000 00       		.space	1
 390 0001 000000   		.space	3
 391              		.type	check_frame.4579, %object
 392              		.size	check_frame.4579, 8
 393              	check_frame.4579:
 394 0004 00000000 		.space	8
 394      00000000 
 395              		.type	data_idx.4572, %object
 396              		.size	data_idx.4572, 4
 397              	data_idx.4572:
 398 000c 00000000 		.space	4
 399              		.type	data_buffer.4571, %object
 400              		.size	data_buffer.4571, 12
 401              	data_buffer.4571:
 402 0010 00000000 		.space	12
 402      00000000 
 402      00000000 
 403              		.type	state.4578, %object
 404              		.size	state.4578, 1
 405              	state.4578:
 406 001c 00       		.space	1
 407              		.text
 408              	.Letext0:
 409              		.file 2 "c:\\program files (x86)\\cypress\\psoc creator\\4.1\\psoc creator\\import\\gnu\\arm\\5.4.
 410              		.file 3 "c:\\program files (x86)\\cypress\\psoc creator\\4.1\\psoc creator\\import\\gnu\\arm\\5.4.
 411              		.file 4 "cytypes.h"
 412              		.file 5 "rdm.h"
 413              		.file 6 "main.h"
 414              		.file 7 "RDM_Header.h"
 415              		.file 8 "<built-in>"