ARM GAS  C:\Users\jimvr\AppData\Local\Temp\ccv1afZN.s 			page 1


   1              		.syntax unified
   2              		.cpu cortex-m3
   3              		.fpu softvfp
   4              		.eabi_attribute 20, 1
   5              		.eabi_attribute 21, 1
   6              		.eabi_attribute 23, 3
   7              		.eabi_attribute 24, 1
   8              		.eabi_attribute 25, 1
   9              		.eabi_attribute 26, 1
  10              		.eabi_attribute 30, 1
  11              		.eabi_attribute 34, 1
  12              		.eabi_attribute 18, 4
  13              		.thumb
  14              		.syntax unified
  15              		.file	"pids.c"
  16              		.text
  17              	.Ltext0:
  18              		.cfi_sections	.debug_frame
  19              		.section	.text.getDMXPersonality,"ax",%progbits
  20              		.align	2
  21              		.global	getDMXPersonality
  22              		.thumb
  23              		.thumb_func
  24              		.type	getDMXPersonality, %function
  25              	getDMXPersonality:
  26              	.LFB2:
  27              		.file 1 "pids.c"
   1:pids.c        **** /*
   2:pids.c        **** 
   3:pids.c        ****     pids.c
   4:pids.c        ****     *****************************************************************************
   5:pids.c        ****     * Copyright (2019 - 2020) The NED Group
   6:pids.c        ****     ******************************************************************************
   7:pids.c        ****     see main.c for full disclaimer
   8:pids.c        ****     
   9:pids.c        **** */
  10:pids.c        ****     
  11:pids.c        **** 
  12:pids.c        **** #include <stdio.h>
  13:pids.c        **** #include "main.h"
  14:pids.c        **** #include "pids.h"
  15:pids.c        **** #include "rdm.h"
  16:pids.c        **** #include "queue.h"
  17:pids.c        **** #include "rdmESTA.h"
  18:pids.c        **** 
  19:pids.c        **** 
  20:pids.c        **** extern structDeviceInfo DeviceInfo;
  21:pids.c        **** extern structRDM RDM;
  22:pids.c        **** extern structInfo Info;
  23:pids.c        **** 
  24:pids.c        **** extern bool blSaveToInfo;
  25:pids.c        **** extern bool blSaveToRDM;
  26:pids.c        **** 
  27:pids.c        **** bool getQueuedMessage(structRDMPacket *, PACKET_DEST);
  28:pids.c        **** 
  29:pids.c        **** bool getDMXPersonality(structRDMPacket *, PACKET_DEST);
  30:pids.c        **** bool setDMXPersonality(structRDMPacket *, PACKET_DEST);
ARM GAS  C:\Users\jimvr\AppData\Local\Temp\ccv1afZN.s 			page 2


  31:pids.c        **** bool getDMXPersonalityDescription(structRDMPacket *, PACKET_DEST);
  32:pids.c        **** 
  33:pids.c        **** bool getDeviceLabel(structRDMPacket *, PACKET_DEST);
  34:pids.c        **** bool setDeviceLabel(structRDMPacket *, PACKET_DEST);
  35:pids.c        **** 
  36:pids.c        **** bool getDeviceModelDescription(structRDMPacket *, PACKET_DEST);
  37:pids.c        **** 
  38:pids.c        **** bool getManufacturerLabel(structRDMPacket *, PACKET_DEST);
  39:pids.c        **** 
  40:pids.c        **** bool getDMXStartAddress(structRDMPacket *, PACKET_DEST);
  41:pids.c        **** bool setDMXStartAddress(structRDMPacket *, PACKET_DEST);
  42:pids.c        **** 
  43:pids.c        **** bool setSetUID(structRDMPacket *, PACKET_DEST);
  44:pids.c        **** 
  45:pids.c        **** /* ADD PROTOTYPE FOR CUSTOM PID REQUEST HANDLER
  46:pids.c        **** bool getCustomPid(structRDMPacket *, PACKET_DEST);
  47:pids.c        **** */
  48:pids.c        **** 
  49:pids.c        **** const structRDMParameter RDMPIDStore[] =
  50:pids.c        **** {
  51:pids.c        **** 	{
  52:pids.c        **** 		.uiParameterID = E120_QUEUED_MESSAGE,
  53:pids.c        **** 		.byGetLength = 1,
  54:pids.c        **** 		.bySetLength = 0,
  55:pids.c        **** 		.getRequestHandler = getQueuedMessage,
  56:pids.c        **** 		.setRequestHandler = NULL,
  57:pids.c        **** 	},
  58:pids.c        ****     {
  59:pids.c        **** 		.uiParameterID = E120_DMX_PERSONALITY,
  60:pids.c        **** 		.byGetLength = 0,
  61:pids.c        **** 		.bySetLength = 1,
  62:pids.c        **** 		.getRequestHandler = getDMXPersonality,
  63:pids.c        **** 		.setRequestHandler = setDMXPersonality,
  64:pids.c        **** 	},
  65:pids.c        **** 	{
  66:pids.c        **** 		.uiParameterID = E120_DMX_PERSONALITY_DESCRIPTION,
  67:pids.c        **** 		.byGetLength = 1,
  68:pids.c        **** 		.bySetLength = 0,
  69:pids.c        **** 		.getRequestHandler = getDMXPersonalityDescription,
  70:pids.c        **** 		.setRequestHandler = NULL,
  71:pids.c        **** 	},
  72:pids.c        **** 	{
  73:pids.c        **** 		.uiParameterID = E120_DEVICE_LABEL,
  74:pids.c        **** 		.byGetLength = 0,
  75:pids.c        **** 		.bySetLength = 33,
  76:pids.c        **** 		.getRequestHandler = getDeviceLabel,
  77:pids.c        **** 		.setRequestHandler = setDeviceLabel,
  78:pids.c        **** 		.blIsText = true,
  79:pids.c        **** 	},
  80:pids.c        **** 	{
  81:pids.c        **** 		.uiParameterID = E120_DEVICE_MODEL_DESCRIPTION,
  82:pids.c        **** 		.byGetLength = 0,
  83:pids.c        **** 		.bySetLength = 0,
  84:pids.c        **** 		.getRequestHandler = getDeviceModelDescription,
  85:pids.c        **** 		.setRequestHandler = NULL,
  86:pids.c        **** 		.blIsText = true,
  87:pids.c        **** 	},
ARM GAS  C:\Users\jimvr\AppData\Local\Temp\ccv1afZN.s 			page 3


  88:pids.c        **** 	{
  89:pids.c        **** 		.uiParameterID = E120_MANUFACTURER_LABEL,
  90:pids.c        **** 		.byGetLength = 0,
  91:pids.c        **** 		.bySetLength = 0,
  92:pids.c        **** 		.getRequestHandler = getManufacturerLabel,
  93:pids.c        **** 		.setRequestHandler = NULL,
  94:pids.c        **** 		.blIsText = true,
  95:pids.c        **** 	},
  96:pids.c        **** 	{
  97:pids.c        **** 		.uiParameterID = E120_DMX_START_ADDRESS,
  98:pids.c        **** 		.byGetLength = 0,
  99:pids.c        **** 		.bySetLength = 2,
 100:pids.c        **** 		.getRequestHandler = getDMXStartAddress,
 101:pids.c        **** 		.setRequestHandler = setDMXStartAddress,
 102:pids.c        **** 		.blIsHidden = true,
 103:pids.c        **** 	},
 104:pids.c        **** 	{
 105:pids.c        ****     	.uiParameterID = _RDM_UID,
 106:pids.c        ****     	.byGetLength = 0,
 107:pids.c        ****     	.bySetLength = 4,
 108:pids.c        ****     	.blIsHidden = true,
 109:pids.c        ****     	.getRequestHandler = NULL,
 110:pids.c        ****     	.setRequestHandler = setSetUID,
 111:pids.c        ****     },
 112:pids.c        ****     
 113:pids.c        **** 	/* ADD DEFINITION OF CUSTOM PID
 114:pids.c        **** 	Required: Required to function correctly.
 115:pids.c        **** 	Manufacturer: Required by SUPPORTED_PARAMETERS. Used for manufacturer defined PIDs.
 116:pids.c        **** 	{
 117:pids.c        **** 		.uiParameterID = NED_CUSTOM_PID,			Required		PID defined in pid.h.
 118:pids.c        **** 		.strDesc = "Dummy PID",						Manufacturer	PID description (Max 32 chars).												
 119:pids.c        **** 		.ulMinValue = 0,							Manufacturer	Minimum return value.
 120:pids.c        **** 		.ulMaxValue = 1,							Manufacturer	Maximum return value.
 121:pids.c        **** 		.ulDefValue = 0,							Manufacturer	Default return value.
 122:pids.c        **** 		.byDataType = 0,							Manufacturer	Data type (defined in RDM standard SUPPORTED_PARAMETERS).
 123:pids.c        **** 		.byUnits = 0,								Manufacturer	Units (defined in RDM standard SUPPORTED_PARAMETERS).
 124:pids.c        **** 		.byPrefix = 0,								Manufacturer	Prefix (defined in RDM standard SUPPORTED_PARAMETERS).
 125:pids.c        **** 		.byGetLength = 0,							Required		Expected length of GET request.
 126:pids.c        **** 		.bySetLength = 4,							Required		Expected length of SET request.
 127:pids.c        **** 		.getRequestHandler = getCustomPid,			Required		Function pointer to GET request handler. Set to NU
 128:pids.c        **** 		.setRequestHandler = NULL,					Required		Function pointer to SET request handler. Set to NULL if 
 129:pids.c        **** 	},
 130:pids.c        **** 	*/
 131:pids.c        **** };
 132:pids.c        **** const uint8 RDMPIDStoreLength = sizeof(RDMPIDStore)/sizeof(RDMPIDStore[0]);
 133:pids.c        **** 
 134:pids.c        **** structDMXPersonality dmxPtys[] =
 135:pids.c        **** {
 136:pids.c        **** 	{
 137:pids.c        **** 		.uiSlotCount = 6,
 138:pids.c        **** 		.cDesc = "6ch 8Bit",
 139:pids.c        **** 	},
 140:pids.c        **** 	{
 141:pids.c        **** 		.uiSlotCount = 12,
 142:pids.c        **** 		.cDesc = "6ch 16Bit",
 143:pids.c        **** 	},
 144:pids.c        ****    	{
ARM GAS  C:\Users\jimvr\AppData\Local\Temp\ccv1afZN.s 			page 4


 145:pids.c        **** 		.uiSlotCount = 1,
 146:pids.c        **** 		.cDesc = "1ch 8Bit",
 147:pids.c        **** 	},
 148:pids.c        ****    	{
 149:pids.c        **** 		.uiSlotCount = 2,
 150:pids.c        **** 		.cDesc = "1ch 16Bit",
 151:pids.c        **** 	}
 152:pids.c        **** };
 153:pids.c        **** 
 154:pids.c        **** bool getQueuedMessage(structRDMPacket *RDMPacket, PACKET_DEST Dest)
 155:pids.c        **** {
 156:pids.c        ****    	if(Dest) {} //To prevent warning. Will compile to NO-OP.
 157:pids.c        **** 	if(!queue_count())
 158:pids.c        **** 	{
 159:pids.c        **** 		RDMPacket->uiParameterID = CYSWAP_ENDIAN16(E120_STATUS_MESSAGES);
 160:pids.c        **** 		RDMPacket->byParameterLength = 0;
 161:pids.c        **** 	}
 162:pids.c        **** 	else
 163:pids.c        **** 	{
 164:pids.c        **** 		const structQueueItem QI = queue_front();
 165:pids.c        **** 		RDMPacket->uiParameterID = QI.uiParameterID;
 166:pids.c        **** 		RDMPacket->byCommandClass = QI.byCommandClass;
 167:pids.c        **** 		memcpy(RDMPacket->byParameterData, QI.byParameterData, QI.byParameterLength);
 168:pids.c        **** 		RDMPacket->byParameterLength = QI.byParameterLength;
 169:pids.c        **** 	}
 170:pids.c        **** 	return true;
 171:pids.c        **** }
 172:pids.c        **** 
 173:pids.c        **** bool getDMXPersonality(structRDMPacket *RDMPacket, PACKET_DEST Dest)
 174:pids.c        **** {
  28              		.loc 1 174 0
  29              		.cfi_startproc
  30              		@ args = 0, pretend = 0, frame = 0
  31              		@ frame_needed = 0, uses_anonymous_args = 0
  32              		@ link register save eliminated.
  33              	.LVL0:
 175:pids.c        **** 	if(Dest) {} //To prevent warning. Will compile to NO-OP.
 176:pids.c        **** 	RDMPacket->byParameterData[0] = RDM.stRDMPersonality;
  34              		.loc 1 176 0
  35 0000 044B     		ldr	r3, .L2
  36 0002 1B7A     		ldrb	r3, [r3, #8]	@ zero_extendqisi2
  37 0004 0376     		strb	r3, [r0, #24]
 177:pids.c        **** 	RDMPacket->byParameterData[1] = _RDM_PERSONALITY_COUNT - 1;
  38              		.loc 1 177 0
  39 0006 0423     		movs	r3, #4
  40 0008 4376     		strb	r3, [r0, #25]
 178:pids.c        **** 	RDMPacket->byParameterLength = 2;
  41              		.loc 1 178 0
  42 000a 0223     		movs	r3, #2
  43 000c C375     		strb	r3, [r0, #23]
 179:pids.c        **** 	return true;
 180:pids.c        **** }
  44              		.loc 1 180 0
  45 000e 0120     		movs	r0, #1
  46              	.LVL1:
  47 0010 7047     		bx	lr
  48              	.L3:
ARM GAS  C:\Users\jimvr\AppData\Local\Temp\ccv1afZN.s 			page 5


  49 0012 00BF     		.align	2
  50              	.L2:
  51 0014 00000000 		.word	RDM
  52              		.cfi_endproc
  53              	.LFE2:
  54              		.size	getDMXPersonality, .-getDMXPersonality
  55              		.section	.text.getDMXStartAddress,"ax",%progbits
  56              		.align	2
  57              		.global	getDMXStartAddress
  58              		.thumb
  59              		.thumb_func
  60              		.type	getDMXStartAddress, %function
  61              	getDMXStartAddress:
  62              	.LFB9:
 181:pids.c        **** 
 182:pids.c        **** bool setDMXPersonality(structRDMPacket *RDMPacket, PACKET_DEST Dest)
 183:pids.c        **** {
 184:pids.c        **** 	if(Dest == DEVICE)
 185:pids.c        **** 	{
 186:pids.c        **** 		uint8 Personality = RDMPacket->byParameterData[0] - 1;
 187:pids.c        **** 		if(Personality < _RDM_PERSONALITY_COUNT - 1)
 188:pids.c        **** 		{
 189:pids.c        **** 			RDM.stRDMPersonality = Personality + 1;
 190:pids.c        **** 			DeviceInfo.uiDMXFootprint = CYSWAP_ENDIAN16(dmxPtys[Personality].uiSlotCount);
 191:pids.c        **** 			DeviceInfo.uiDMXPersonality = CYSWAP_ENDIAN16(UINT8_TO_UINT16(Personality + 1, _RDM_PERSONALITY_
 192:pids.c        **** 	        
 193:pids.c        **** 			RDMPacket->byParameterLength = 0;
 194:pids.c        **** 			blSaveToInfo = true;
 195:pids.c        **** 			blSaveToRDM = true;
 196:pids.c        **** 			
 197:pids.c        **** 			RDM_RespondTimer(RDMPacket, 50);
 198:pids.c        **** 			queue_enqueue(E120_DMX_PERSONALITY, E120_SET_COMMAND, NULL, 0);
 199:pids.c        **** 		}
 200:pids.c        **** 		else
 201:pids.c        **** 		{
 202:pids.c        **** 			RDM_RespondNACK(RDMPacket, E120_NR_DATA_OUT_OF_RANGE);
 203:pids.c        **** 		}
 204:pids.c        **** 	}
 205:pids.c        **** 	return false;
 206:pids.c        **** }
 207:pids.c        **** 
 208:pids.c        **** bool getDMXPersonalityDescription(structRDMPacket *RDMPacket, PACKET_DEST Dest)
 209:pids.c        **** {
 210:pids.c        **** 	uint8 Personality = RDMPacket->byParameterData[0];
 211:pids.c        **** 	if(Personality >= 1 && Personality <= sizeof(dmxPtys)/sizeof(dmxPtys[0]))
 212:pids.c        **** 	{
 213:pids.c        **** 		RDMPacket->byParameterData[1] = HI8(dmxPtys[Personality-1].uiSlotCount);
 214:pids.c        **** 		RDMPacket->byParameterData[2] = LO8(dmxPtys[Personality-1].uiSlotCount);
 215:pids.c        **** 		memcpy(&RDMPacket->byParameterData[3], dmxPtys[Personality-1].cDesc, strlen(dmxPtys[Personality-1
 216:pids.c        **** 		RDMPacket->byParameterLength = 3+strlen(dmxPtys[Personality-1].cDesc);
 217:pids.c        **** 		return true;
 218:pids.c        **** 	}
 219:pids.c        **** 	else if(Dest == DEVICE)
 220:pids.c        **** 	{
 221:pids.c        **** 		RDM_RespondNACK(RDMPacket, E120_NR_DATA_OUT_OF_RANGE);
 222:pids.c        **** 		return false;
 223:pids.c        **** 	}
ARM GAS  C:\Users\jimvr\AppData\Local\Temp\ccv1afZN.s 			page 6


 224:pids.c        **** 	return false;
 225:pids.c        **** }
 226:pids.c        **** 
 227:pids.c        **** bool getDeviceLabel(structRDMPacket *RDMPacket, PACKET_DEST Dest)
 228:pids.c        **** {
 229:pids.c        **** 	if(Dest) {} //To prevent warning. Will compile to NO-OP.
 230:pids.c        ****     memcpy(RDMPacket->byParameterData, RDM.stRDMIdentity, strlen((char *)RDM.stRDMIdentity));
 231:pids.c        **** 	RDMPacket->byParameterLength = strlen((char *)RDM.stRDMIdentity);
 232:pids.c        **** 	return true;
 233:pids.c        **** }
 234:pids.c        **** 
 235:pids.c        **** bool setDeviceLabel(structRDMPacket *RDMPacket, PACKET_DEST Dest)
 236:pids.c        **** {
 237:pids.c        **** 	if(Dest == DEVICE)
 238:pids.c        **** 	{
 239:pids.c        ****         memset(RDM.stRDMIdentity, 0, sizeof(RDM.stRDMIdentity));
 240:pids.c        ****     	memcpy(RDM.stRDMIdentity, RDMPacket->byParameterData, RDMPacket->byParameterLength);
 241:pids.c        ****     	RDMPacket->byParameterLength = 0;
 242:pids.c        ****     	blSaveToRDM = true;
 243:pids.c        ****         
 244:pids.c        ****         RDM_RespondTimer(RDMPacket, 50);
 245:pids.c        **** 		queue_enqueue(E120_DEVICE_LABEL, E120_SET_COMMAND, NULL, 0);
 246:pids.c        **** 	}
 247:pids.c        **** 	return false;
 248:pids.c        **** }
 249:pids.c        **** 
 250:pids.c        **** bool getDeviceModelDescription(structRDMPacket *RDMPacket, PACKET_DEST Dest)
 251:pids.c        **** {
 252:pids.c        **** 	if(Dest) {} //To prevent warning. Will compile to NO-OP.
 253:pids.c        ****     memcpy(RDMPacket->byParameterData, RDM.stRDMModel, strlen((char *)RDM.stRDMModel));
 254:pids.c        **** 	RDMPacket->byParameterLength = strlen((char *)RDM.stRDMModel);
 255:pids.c        **** 	return true;
 256:pids.c        **** }
 257:pids.c        **** 
 258:pids.c        **** bool getManufacturerLabel(structRDMPacket *RDMPacket, PACKET_DEST Dest)
 259:pids.c        **** {
 260:pids.c        **** 	if(Dest) {} //To prevent warning. Will compile to NO-OP.
 261:pids.c        ****     memcpy(RDMPacket->byParameterData, RDM.stRDMManufacturer, strlen((char *)RDM.stRDMManufacturer)
 262:pids.c        **** 	RDMPacket->byParameterLength = strlen((char *)RDM.stRDMManufacturer);
 263:pids.c        **** 	return true;
 264:pids.c        **** }
 265:pids.c        **** 
 266:pids.c        **** bool getDMXStartAddress(structRDMPacket *RDMPacket, PACKET_DEST Dest)
 267:pids.c        **** {
  63              		.loc 1 267 0
  64              		.cfi_startproc
  65              		@ args = 0, pretend = 0, frame = 0
  66              		@ frame_needed = 0, uses_anonymous_args = 0
  67              		@ link register save eliminated.
  68              	.LVL2:
 268:pids.c        **** 	if(Dest) {} //To prevent warning. Will compile to NO-OP.
 269:pids.c        **** 	
 270:pids.c        ****     RDMPacket->byParameterData[0] = HI8(Info.uiDMXChannel[0]);
  69              		.loc 1 270 0
  70 0000 044B     		ldr	r3, .L5
  71 0002 1B88     		ldrh	r3, [r3]	@ unaligned
  72 0004 1A0A     		lsrs	r2, r3, #8
ARM GAS  C:\Users\jimvr\AppData\Local\Temp\ccv1afZN.s 			page 7


  73 0006 0276     		strb	r2, [r0, #24]
 271:pids.c        **** 	RDMPacket->byParameterData[1] = LO8(Info.uiDMXChannel[0]);
  74              		.loc 1 271 0
  75 0008 4376     		strb	r3, [r0, #25]
 272:pids.c        **** 	RDMPacket->byParameterLength = 2;
  76              		.loc 1 272 0
  77 000a 0223     		movs	r3, #2
  78 000c C375     		strb	r3, [r0, #23]
 273:pids.c        **** 	return true;
 274:pids.c        **** }
  79              		.loc 1 274 0
  80 000e 0120     		movs	r0, #1
  81              	.LVL3:
  82 0010 7047     		bx	lr
  83              	.L6:
  84 0012 00BF     		.align	2
  85              	.L5:
  86 0014 00000000 		.word	Info
  87              		.cfi_endproc
  88              	.LFE9:
  89              		.size	getDMXStartAddress, .-getDMXStartAddress
  90              		.section	.text.getQueuedMessage,"ax",%progbits
  91              		.align	2
  92              		.global	getQueuedMessage
  93              		.thumb
  94              		.thumb_func
  95              		.type	getQueuedMessage, %function
  96              	getQueuedMessage:
  97              	.LFB1:
 155:pids.c        ****    	if(Dest) {} //To prevent warning. Will compile to NO-OP.
  98              		.loc 1 155 0
  99              		.cfi_startproc
 100              		@ args = 0, pretend = 0, frame = 8
 101              		@ frame_needed = 0, uses_anonymous_args = 0
 102              	.LVL4:
 103 0000 30B5     		push	{r4, r5, lr}
 104              		.cfi_def_cfa_offset 12
 105              		.cfi_offset 4, -12
 106              		.cfi_offset 5, -8
 107              		.cfi_offset 14, -4
 108 0002 83B0     		sub	sp, sp, #12
 109              		.cfi_def_cfa_offset 24
 110 0004 0446     		mov	r4, r0
 157:pids.c        **** 	{
 111              		.loc 1 157 0
 112 0006 FFF7FEFF 		bl	queue_count
 113              	.LVL5:
 114 000a 28B9     		cbnz	r0, .L8
 159:pids.c        **** 		RDMPacket->byParameterLength = 0;
 115              		.loc 1 159 0
 116 000c 0023     		movs	r3, #0
 117 000e 6375     		strb	r3, [r4, #21]
 118 0010 3022     		movs	r2, #48
 119 0012 A275     		strb	r2, [r4, #22]
 160:pids.c        **** 	}
 120              		.loc 1 160 0
 121 0014 E375     		strb	r3, [r4, #23]
ARM GAS  C:\Users\jimvr\AppData\Local\Temp\ccv1afZN.s 			page 8


 122 0016 12E0     		b	.L9
 123              	.L8:
 124              	.LBB2:
 164:pids.c        **** 		RDMPacket->uiParameterID = QI.uiParameterID;
 125              		.loc 1 164 0
 126 0018 6846     		mov	r0, sp
 127 001a FFF7FEFF 		bl	queue_front
 128              	.LVL6:
 165:pids.c        **** 		RDMPacket->byCommandClass = QI.byCommandClass;
 129              		.loc 1 165 0
 130 001e BDF80030 		ldrh	r3, [sp]
 131 0022 A4F81530 		strh	r3, [r4, #21]	@ unaligned
 166:pids.c        **** 		memcpy(RDMPacket->byParameterData, QI.byParameterData, QI.byParameterLength);
 132              		.loc 1 166 0
 133 0026 9DF80230 		ldrb	r3, [sp, #2]	@ zero_extendqisi2
 134 002a 2375     		strb	r3, [r4, #20]
 167:pids.c        **** 		RDMPacket->byParameterLength = QI.byParameterLength;
 135              		.loc 1 167 0
 136 002c 9DF80350 		ldrb	r5, [sp, #3]	@ zero_extendqisi2
 137 0030 2A46     		mov	r2, r5
 138 0032 0199     		ldr	r1, [sp, #4]
 139 0034 04F11800 		add	r0, r4, #24
 140 0038 FFF7FEFF 		bl	memcpy
 141              	.LVL7:
 168:pids.c        **** 	}
 142              		.loc 1 168 0
 143 003c E575     		strb	r5, [r4, #23]
 144              	.L9:
 145              	.LBE2:
 171:pids.c        **** 
 146              		.loc 1 171 0
 147 003e 0120     		movs	r0, #1
 148 0040 03B0     		add	sp, sp, #12
 149              		.cfi_def_cfa_offset 12
 150              		@ sp needed
 151 0042 30BD     		pop	{r4, r5, pc}
 152              		.cfi_endproc
 153              	.LFE1:
 154              		.size	getQueuedMessage, .-getQueuedMessage
 155              		.section	.text.setDMXPersonality,"ax",%progbits
 156              		.align	2
 157              		.global	setDMXPersonality
 158              		.thumb
 159              		.thumb_func
 160              		.type	setDMXPersonality, %function
 161              	setDMXPersonality:
 162              	.LFB3:
 183:pids.c        **** 	if(Dest == DEVICE)
 163              		.loc 1 183 0
 164              		.cfi_startproc
 165              		@ args = 0, pretend = 0, frame = 0
 166              		@ frame_needed = 0, uses_anonymous_args = 0
 167              	.LVL8:
 184:pids.c        **** 	{
 168              		.loc 1 184 0
 169 0000 0129     		cmp	r1, #1
 170 0002 2CD1     		bne	.L15
ARM GAS  C:\Users\jimvr\AppData\Local\Temp\ccv1afZN.s 			page 9


 183:pids.c        **** 	if(Dest == DEVICE)
 171              		.loc 1 183 0
 172 0004 10B5     		push	{r4, lr}
 173              		.cfi_def_cfa_offset 8
 174              		.cfi_offset 4, -8
 175              		.cfi_offset 14, -4
 176              	.LBB3:
 186:pids.c        **** 		if(Personality < _RDM_PERSONALITY_COUNT - 1)
 177              		.loc 1 186 0
 178 0006 027E     		ldrb	r2, [r0, #24]	@ zero_extendqisi2
 179 0008 531E     		subs	r3, r2, #1
 180 000a DBB2     		uxtb	r3, r3
 181              	.LVL9:
 187:pids.c        **** 		{
 182              		.loc 1 187 0
 183 000c 032B     		cmp	r3, #3
 184 000e 21D8     		bhi	.L13
 189:pids.c        **** 			DeviceInfo.uiDMXFootprint = CYSWAP_ENDIAN16(dmxPtys[Personality].uiSlotCount);
 185              		.loc 1 189 0
 186 0010 1449     		ldr	r1, .L16
 187              	.LVL10:
 188 0012 0A72     		strb	r2, [r1, #8]
 190:pids.c        **** 			DeviceInfo.uiDMXPersonality = CYSWAP_ENDIAN16(UINT8_TO_UINT16(Personality + 1, _RDM_PERSONALITY_
 189              		.loc 1 190 0
 190 0014 144A     		ldr	r2, .L16+4
 191 0016 32F83320 		ldrh	r2, [r2, r3, lsl #3]
 192 001a 1449     		ldr	r1, .L16+8
 193 001c 52BA     		rev16	r2, r2
 194 001e 4A81     		strh	r2, [r1, #10]	@ unaligned
 191:pids.c        **** 	        
 195              		.loc 1 191 0
 196 0020 0133     		adds	r3, r3, #1
 197              	.LVL11:
 198 0022 1B02     		lsls	r3, r3, #8
 199              	.LVL12:
 200 0024 C3F30722 		ubfx	r2, r3, #8, #8
 201 0028 42EA0323 		orr	r3, r2, r3, lsl #8
 202 002c 43F48063 		orr	r3, r3, #1024
 203 0030 8B81     		strh	r3, [r1, #12]	@ unaligned
 193:pids.c        **** 			blSaveToInfo = true;
 204              		.loc 1 193 0
 205 0032 0024     		movs	r4, #0
 206 0034 C475     		strb	r4, [r0, #23]
 194:pids.c        **** 			blSaveToRDM = true;
 207              		.loc 1 194 0
 208 0036 0123     		movs	r3, #1
 209 0038 0D4A     		ldr	r2, .L16+12
 210 003a 1370     		strb	r3, [r2]
 195:pids.c        **** 			
 211              		.loc 1 195 0
 212 003c 0D4A     		ldr	r2, .L16+16
 213 003e 1370     		strb	r3, [r2]
 197:pids.c        **** 			queue_enqueue(E120_DMX_PERSONALITY, E120_SET_COMMAND, NULL, 0);
 214              		.loc 1 197 0
 215 0040 3221     		movs	r1, #50
 216 0042 FFF7FEFF 		bl	RDM_RespondTimer
 217              	.LVL13:
ARM GAS  C:\Users\jimvr\AppData\Local\Temp\ccv1afZN.s 			page 10


 198:pids.c        **** 		}
 218              		.loc 1 198 0
 219 0046 2346     		mov	r3, r4
 220 0048 2246     		mov	r2, r4
 221 004a 3021     		movs	r1, #48
 222 004c E020     		movs	r0, #224
 223 004e FFF7FEFF 		bl	queue_enqueue
 224              	.LVL14:
 225 0052 02E0     		b	.L12
 226              	.LVL15:
 227              	.L13:
 202:pids.c        **** 		}
 228              		.loc 1 202 0
 229 0054 0621     		movs	r1, #6
 230              	.LVL16:
 231 0056 FFF7FEFF 		bl	RDM_RespondNACK
 232              	.LVL17:
 233              	.L12:
 234              	.LBE3:
 206:pids.c        **** 
 235              		.loc 1 206 0
 236 005a 0020     		movs	r0, #0
 237 005c 10BD     		pop	{r4, pc}
 238              	.LVL18:
 239              	.L15:
 240              		.cfi_def_cfa_offset 0
 241              		.cfi_restore 4
 242              		.cfi_restore 14
 243 005e 0020     		movs	r0, #0
 244              	.LVL19:
 245 0060 7047     		bx	lr
 246              	.L17:
 247 0062 00BF     		.align	2
 248              	.L16:
 249 0064 00000000 		.word	RDM
 250 0068 00000000 		.word	.LANCHOR0
 251 006c 00000000 		.word	DeviceInfo
 252 0070 00000000 		.word	blSaveToInfo
 253 0074 00000000 		.word	blSaveToRDM
 254              		.cfi_endproc
 255              	.LFE3:
 256              		.size	setDMXPersonality, .-setDMXPersonality
 257              		.section	.text.setDMXStartAddress,"ax",%progbits
 258              		.align	2
 259              		.global	setDMXStartAddress
 260              		.thumb
 261              		.thumb_func
 262              		.type	setDMXStartAddress, %function
 263              	setDMXStartAddress:
 264              	.LFB10:
 275:pids.c        **** 
 276:pids.c        **** bool setDMXStartAddress(structRDMPacket *RDMPacket, PACKET_DEST Dest)
 277:pids.c        **** {
 265              		.loc 1 277 0
 266              		.cfi_startproc
 267              		@ args = 0, pretend = 0, frame = 0
 268              		@ frame_needed = 0, uses_anonymous_args = 0
ARM GAS  C:\Users\jimvr\AppData\Local\Temp\ccv1afZN.s 			page 11


 269              	.LVL20:
 270 0000 08B5     		push	{r3, lr}
 271              		.cfi_def_cfa_offset 8
 272              		.cfi_offset 3, -8
 273              		.cfi_offset 14, -4
 278:pids.c        **** 	uint16 dmxAddress = UINT8_TO_UINT16(RDMPacket->byParameterData[0], RDMPacket->byParameterData[1]);
 274              		.loc 1 278 0
 275 0002 027E     		ldrb	r2, [r0, #24]	@ zero_extendqisi2
 276 0004 437E     		ldrb	r3, [r0, #25]	@ zero_extendqisi2
 277 0006 43EA0223 		orr	r3, r3, r2, lsl #8
 278              	.LVL21:
 279:pids.c        **** 	if(dmxAddress >= 1 && dmxAddress <= 512)
 279              		.loc 1 279 0
 280 000a 5A1E     		subs	r2, r3, #1
 281 000c 92B2     		uxth	r2, r2
 282 000e B2F5007F 		cmp	r2, #512
 283 0012 15D2     		bcs	.L19
 280:pids.c        **** 	{
 281:pids.c        **** 		DeviceInfo.uiDMXStartAddress = CYSWAP_ENDIAN16(dmxAddress);
 284              		.loc 1 281 0
 285 0014 5BBA     		rev16	r3, r3
 286              	.LVL22:
 287 0016 0E4A     		ldr	r2, .L22
 288 0018 D381     		strh	r3, [r2, #14]	@ unaligned
 282:pids.c        **** 		RDMPacket->byParameterLength = 0;
 289              		.loc 1 282 0
 290 001a 0023     		movs	r3, #0
 291 001c C375     		strb	r3, [r0, #23]
 283:pids.c        **** 		blSaveToInfo = true;
 292              		.loc 1 283 0
 293 001e 0123     		movs	r3, #1
 294 0020 0C4A     		ldr	r2, .L22+4
 295 0022 1370     		strb	r3, [r2]
 284:pids.c        ****   		blSaveToRDM = true;
 296              		.loc 1 284 0
 297 0024 0C4A     		ldr	r2, .L22+8
 298 0026 1370     		strb	r3, [r2]
 285:pids.c        **** 
 286:pids.c        **** 		if(Dest == DEVICE)
 299              		.loc 1 286 0
 300 0028 9942     		cmp	r1, r3
 301 002a 0ED1     		bne	.L20
 287:pids.c        **** 		{
 288:pids.c        ****             RDM_RespondTimer(RDMPacket, 50);
 302              		.loc 1 288 0
 303 002c 3221     		movs	r1, #50
 304              	.LVL23:
 305 002e FFF7FEFF 		bl	RDM_RespondTimer
 306              	.LVL24:
 289:pids.c        **** 			queue_enqueue(E120_DMX_START_ADDRESS, E120_SET_COMMAND, NULL, 0);
 307              		.loc 1 289 0
 308 0032 0023     		movs	r3, #0
 309 0034 1A46     		mov	r2, r3
 310 0036 3021     		movs	r1, #48
 311 0038 F020     		movs	r0, #240
 312 003a FFF7FEFF 		bl	queue_enqueue
 313              	.LVL25:
ARM GAS  C:\Users\jimvr\AppData\Local\Temp\ccv1afZN.s 			page 12


 314 003e 04E0     		b	.L20
 315              	.LVL26:
 316              	.L19:
 290:pids.c        **** 		}
 291:pids.c        **** 		return false;
 292:pids.c        **** 	}
 293:pids.c        **** 	else if(Dest == DEVICE)
 317              		.loc 1 293 0
 318 0040 0129     		cmp	r1, #1
 319 0042 02D1     		bne	.L20
 294:pids.c        **** 	{
 295:pids.c        **** 		RDM_RespondNACK(RDMPacket, E120_NR_DATA_OUT_OF_RANGE);
 320              		.loc 1 295 0
 321 0044 0621     		movs	r1, #6
 322              	.LVL27:
 323 0046 FFF7FEFF 		bl	RDM_RespondNACK
 324              	.LVL28:
 325              	.L20:
 296:pids.c        **** 		return false;
 297:pids.c        **** 	}
 298:pids.c        **** 	return false;
 299:pids.c        **** }
 326              		.loc 1 299 0
 327 004a 0020     		movs	r0, #0
 328 004c 08BD     		pop	{r3, pc}
 329              	.L23:
 330 004e 00BF     		.align	2
 331              	.L22:
 332 0050 00000000 		.word	DeviceInfo
 333 0054 00000000 		.word	blSaveToInfo
 334 0058 00000000 		.word	blSaveToRDM
 335              		.cfi_endproc
 336              	.LFE10:
 337              		.size	setDMXStartAddress, .-setDMXStartAddress
 338              		.section	.text.getDMXPersonalityDescription,"ax",%progbits
 339              		.align	2
 340              		.global	getDMXPersonalityDescription
 341              		.thumb
 342              		.thumb_func
 343              		.type	getDMXPersonalityDescription, %function
 344              	getDMXPersonalityDescription:
 345              	.LFB4:
 209:pids.c        **** 	uint8 Personality = RDMPacket->byParameterData[0];
 346              		.loc 1 209 0
 347              		.cfi_startproc
 348              		@ args = 0, pretend = 0, frame = 0
 349              		@ frame_needed = 0, uses_anonymous_args = 0
 350              	.LVL29:
 351 0000 F8B5     		push	{r3, r4, r5, r6, r7, lr}
 352              		.cfi_def_cfa_offset 24
 353              		.cfi_offset 3, -24
 354              		.cfi_offset 4, -20
 355              		.cfi_offset 5, -16
 356              		.cfi_offset 6, -12
 357              		.cfi_offset 7, -8
 358              		.cfi_offset 14, -4
 359 0002 0446     		mov	r4, r0
ARM GAS  C:\Users\jimvr\AppData\Local\Temp\ccv1afZN.s 			page 13


 210:pids.c        **** 	if(Personality >= 1 && Personality <= sizeof(dmxPtys)/sizeof(dmxPtys[0]))
 360              		.loc 1 210 0
 361 0004 027E     		ldrb	r2, [r0, #24]	@ zero_extendqisi2
 362              	.LVL30:
 211:pids.c        **** 	{
 363              		.loc 1 211 0
 364 0006 531E     		subs	r3, r2, #1
 365 0008 DBB2     		uxtb	r3, r3
 366 000a 032B     		cmp	r3, #3
 367 000c 1CD8     		bhi	.L25
 368              	.LBB4:
 213:pids.c        **** 		RDMPacket->byParameterData[2] = LO8(dmxPtys[Personality-1].uiSlotCount);
 369              		.loc 1 213 0
 370 000e 013A     		subs	r2, r2, #1
 371              	.LVL31:
 372 0010 124B     		ldr	r3, .L29
 373 0012 33F83210 		ldrh	r1, [r3, r2, lsl #3]
 374              	.LVL32:
 375 0016 090A     		lsrs	r1, r1, #8
 376 0018 4176     		strb	r1, [r0, #25]
 214:pids.c        **** 		memcpy(&RDMPacket->byParameterData[3], dmxPtys[Personality-1].cDesc, strlen(dmxPtys[Personality-1
 377              		.loc 1 214 0
 378 001a 13F83210 		ldrb	r1, [r3, r2, lsl #3]	@ zero_extendqisi2
 379 001e 8176     		strb	r1, [r0, #26]
 215:pids.c        **** 		RDMPacket->byParameterLength = 3+strlen(dmxPtys[Personality-1].cDesc);
 380              		.loc 1 215 0
 381 0020 00F11B07 		add	r7, r0, #27
 382 0024 03EBC205 		add	r5, r3, r2, lsl #3
 383 0028 6E68     		ldr	r6, [r5, #4]
 384 002a 3046     		mov	r0, r6
 385              	.LVL33:
 386 002c FFF7FEFF 		bl	strlen
 387              	.LVL34:
 388 0030 0246     		mov	r2, r0
 389 0032 3146     		mov	r1, r6
 390 0034 3846     		mov	r0, r7
 391 0036 FFF7FEFF 		bl	memcpy
 392              	.LVL35:
 216:pids.c        **** 		return true;
 393              		.loc 1 216 0
 394 003a 6868     		ldr	r0, [r5, #4]
 395 003c FFF7FEFF 		bl	strlen
 396              	.LVL36:
 397 0040 0330     		adds	r0, r0, #3
 398 0042 E075     		strb	r0, [r4, #23]
 217:pids.c        **** 	}
 399              		.loc 1 217 0
 400 0044 0120     		movs	r0, #1
 401 0046 F8BD     		pop	{r3, r4, r5, r6, r7, pc}
 402              	.LVL37:
 403              	.L25:
 404              	.LBE4:
 219:pids.c        **** 	{
 405              		.loc 1 219 0
 406 0048 0129     		cmp	r1, #1
 407 004a 04D1     		bne	.L27
 221:pids.c        **** 		return false;
ARM GAS  C:\Users\jimvr\AppData\Local\Temp\ccv1afZN.s 			page 14


 408              		.loc 1 221 0
 409 004c 0621     		movs	r1, #6
 410              	.LVL38:
 411 004e FFF7FEFF 		bl	RDM_RespondNACK
 412              	.LVL39:
 222:pids.c        **** 	}
 413              		.loc 1 222 0
 414 0052 0020     		movs	r0, #0
 415 0054 F8BD     		pop	{r3, r4, r5, r6, r7, pc}
 416              	.LVL40:
 417              	.L27:
 224:pids.c        **** }
 418              		.loc 1 224 0
 419 0056 0020     		movs	r0, #0
 420              	.LVL41:
 225:pids.c        **** 
 421              		.loc 1 225 0
 422 0058 F8BD     		pop	{r3, r4, r5, r6, r7, pc}
 423              	.LVL42:
 424              	.L30:
 425 005a 00BF     		.align	2
 426              	.L29:
 427 005c 00000000 		.word	.LANCHOR0
 428              		.cfi_endproc
 429              	.LFE4:
 430              		.size	getDMXPersonalityDescription, .-getDMXPersonalityDescription
 431              		.section	.text.getDeviceLabel,"ax",%progbits
 432              		.align	2
 433              		.global	getDeviceLabel
 434              		.thumb
 435              		.thumb_func
 436              		.type	getDeviceLabel, %function
 437              	getDeviceLabel:
 438              	.LFB5:
 228:pids.c        **** 	if(Dest) {} //To prevent warning. Will compile to NO-OP.
 439              		.loc 1 228 0
 440              		.cfi_startproc
 441              		@ args = 0, pretend = 0, frame = 0
 442              		@ frame_needed = 0, uses_anonymous_args = 0
 443              	.LVL43:
 444 0000 70B5     		push	{r4, r5, r6, lr}
 445              		.cfi_def_cfa_offset 16
 446              		.cfi_offset 4, -16
 447              		.cfi_offset 5, -12
 448              		.cfi_offset 6, -8
 449              		.cfi_offset 14, -4
 450 0002 0546     		mov	r5, r0
 230:pids.c        **** 	RDMPacket->byParameterLength = strlen((char *)RDM.stRDMIdentity);
 451              		.loc 1 230 0
 452 0004 00F11806 		add	r6, r0, #24
 453 0008 074C     		ldr	r4, .L33
 454 000a 2046     		mov	r0, r4
 455              	.LVL44:
 456 000c FFF7FEFF 		bl	strlen
 457              	.LVL45:
 458 0010 0246     		mov	r2, r0
 459 0012 2146     		mov	r1, r4
ARM GAS  C:\Users\jimvr\AppData\Local\Temp\ccv1afZN.s 			page 15


 460 0014 3046     		mov	r0, r6
 461 0016 FFF7FEFF 		bl	memcpy
 462              	.LVL46:
 231:pids.c        **** 	return true;
 463              		.loc 1 231 0
 464 001a 2046     		mov	r0, r4
 465 001c FFF7FEFF 		bl	strlen
 466              	.LVL47:
 467 0020 E875     		strb	r0, [r5, #23]
 233:pids.c        **** 
 468              		.loc 1 233 0
 469 0022 0120     		movs	r0, #1
 470 0024 70BD     		pop	{r4, r5, r6, pc}
 471              	.LVL48:
 472              	.L34:
 473 0026 00BF     		.align	2
 474              	.L33:
 475 0028 09000000 		.word	RDM+9
 476              		.cfi_endproc
 477              	.LFE5:
 478              		.size	getDeviceLabel, .-getDeviceLabel
 479              		.section	.text.getDeviceModelDescription,"ax",%progbits
 480              		.align	2
 481              		.global	getDeviceModelDescription
 482              		.thumb
 483              		.thumb_func
 484              		.type	getDeviceModelDescription, %function
 485              	getDeviceModelDescription:
 486              	.LFB7:
 251:pids.c        **** 	if(Dest) {} //To prevent warning. Will compile to NO-OP.
 487              		.loc 1 251 0
 488              		.cfi_startproc
 489              		@ args = 0, pretend = 0, frame = 0
 490              		@ frame_needed = 0, uses_anonymous_args = 0
 491              	.LVL49:
 492 0000 70B5     		push	{r4, r5, r6, lr}
 493              		.cfi_def_cfa_offset 16
 494              		.cfi_offset 4, -16
 495              		.cfi_offset 5, -12
 496              		.cfi_offset 6, -8
 497              		.cfi_offset 14, -4
 498 0002 0546     		mov	r5, r0
 253:pids.c        **** 	RDMPacket->byParameterLength = strlen((char *)RDM.stRDMModel);
 499              		.loc 1 253 0
 500 0004 00F11806 		add	r6, r0, #24
 501 0008 074C     		ldr	r4, .L37
 502 000a 2046     		mov	r0, r4
 503              	.LVL50:
 504 000c FFF7FEFF 		bl	strlen
 505              	.LVL51:
 506 0010 0246     		mov	r2, r0
 507 0012 2146     		mov	r1, r4
 508 0014 3046     		mov	r0, r6
 509 0016 FFF7FEFF 		bl	memcpy
 510              	.LVL52:
 254:pids.c        **** 	return true;
 511              		.loc 1 254 0
ARM GAS  C:\Users\jimvr\AppData\Local\Temp\ccv1afZN.s 			page 16


 512 001a 2046     		mov	r0, r4
 513 001c FFF7FEFF 		bl	strlen
 514              	.LVL53:
 515 0020 E875     		strb	r0, [r5, #23]
 256:pids.c        **** 
 516              		.loc 1 256 0
 517 0022 0120     		movs	r0, #1
 518 0024 70BD     		pop	{r4, r5, r6, pc}
 519              	.LVL54:
 520              	.L38:
 521 0026 00BF     		.align	2
 522              	.L37:
 523 0028 4B000000 		.word	RDM+75
 524              		.cfi_endproc
 525              	.LFE7:
 526              		.size	getDeviceModelDescription, .-getDeviceModelDescription
 527              		.section	.text.getManufacturerLabel,"ax",%progbits
 528              		.align	2
 529              		.global	getManufacturerLabel
 530              		.thumb
 531              		.thumb_func
 532              		.type	getManufacturerLabel, %function
 533              	getManufacturerLabel:
 534              	.LFB8:
 259:pids.c        **** 	if(Dest) {} //To prevent warning. Will compile to NO-OP.
 535              		.loc 1 259 0
 536              		.cfi_startproc
 537              		@ args = 0, pretend = 0, frame = 0
 538              		@ frame_needed = 0, uses_anonymous_args = 0
 539              	.LVL55:
 540 0000 70B5     		push	{r4, r5, r6, lr}
 541              		.cfi_def_cfa_offset 16
 542              		.cfi_offset 4, -16
 543              		.cfi_offset 5, -12
 544              		.cfi_offset 6, -8
 545              		.cfi_offset 14, -4
 546 0002 0546     		mov	r5, r0
 261:pids.c        **** 	RDMPacket->byParameterLength = strlen((char *)RDM.stRDMManufacturer);
 547              		.loc 1 261 0
 548 0004 00F11806 		add	r6, r0, #24
 549 0008 074C     		ldr	r4, .L41
 550 000a 2046     		mov	r0, r4
 551              	.LVL56:
 552 000c FFF7FEFF 		bl	strlen
 553              	.LVL57:
 554 0010 0246     		mov	r2, r0
 555 0012 2146     		mov	r1, r4
 556 0014 3046     		mov	r0, r6
 557 0016 FFF7FEFF 		bl	memcpy
 558              	.LVL58:
 262:pids.c        **** 	return true;
 559              		.loc 1 262 0
 560 001a 2046     		mov	r0, r4
 561 001c FFF7FEFF 		bl	strlen
 562              	.LVL59:
 563 0020 E875     		strb	r0, [r5, #23]
 264:pids.c        **** 
ARM GAS  C:\Users\jimvr\AppData\Local\Temp\ccv1afZN.s 			page 17


 564              		.loc 1 264 0
 565 0022 0120     		movs	r0, #1
 566 0024 70BD     		pop	{r4, r5, r6, pc}
 567              	.LVL60:
 568              	.L42:
 569 0026 00BF     		.align	2
 570              	.L41:
 571 0028 2A000000 		.word	RDM+42
 572              		.cfi_endproc
 573              	.LFE8:
 574              		.size	getManufacturerLabel, .-getManufacturerLabel
 575              		.section	.text.setDeviceLabel,"ax",%progbits
 576              		.align	2
 577              		.global	setDeviceLabel
 578              		.thumb
 579              		.thumb_func
 580              		.type	setDeviceLabel, %function
 581              	setDeviceLabel:
 582              	.LFB6:
 236:pids.c        **** 	if(Dest == DEVICE)
 583              		.loc 1 236 0
 584              		.cfi_startproc
 585              		@ args = 0, pretend = 0, frame = 0
 586              		@ frame_needed = 0, uses_anonymous_args = 0
 587              	.LVL61:
 237:pids.c        **** 	{
 588              		.loc 1 237 0
 589 0000 0129     		cmp	r1, #1
 590 0002 1ED1     		bne	.L46
 236:pids.c        **** 	if(Dest == DEVICE)
 591              		.loc 1 236 0
 592 0004 38B5     		push	{r3, r4, r5, lr}
 593              		.cfi_def_cfa_offset 16
 594              		.cfi_offset 3, -16
 595              		.cfi_offset 4, -12
 596              		.cfi_offset 5, -8
 597              		.cfi_offset 14, -4
 598 0006 0446     		mov	r4, r0
 599              	.LBB5:
 239:pids.c        ****     	memcpy(RDM.stRDMIdentity, RDMPacket->byParameterData, RDMPacket->byParameterLength);
 600              		.loc 1 239 0
 601 0008 0F4D     		ldr	r5, .L47
 602 000a 2122     		movs	r2, #33
 603 000c 0021     		movs	r1, #0
 604              	.LVL62:
 605 000e 2846     		mov	r0, r5
 606              	.LVL63:
 607 0010 FFF7FEFF 		bl	memset
 608              	.LVL64:
 240:pids.c        ****     	RDMPacket->byParameterLength = 0;
 609              		.loc 1 240 0
 610 0014 E27D     		ldrb	r2, [r4, #23]	@ zero_extendqisi2
 611 0016 04F11801 		add	r1, r4, #24
 612 001a 2846     		mov	r0, r5
 613 001c FFF7FEFF 		bl	memcpy
 614              	.LVL65:
 241:pids.c        ****     	blSaveToRDM = true;
ARM GAS  C:\Users\jimvr\AppData\Local\Temp\ccv1afZN.s 			page 18


 615              		.loc 1 241 0
 616 0020 0025     		movs	r5, #0
 617 0022 E575     		strb	r5, [r4, #23]
 242:pids.c        ****         
 618              		.loc 1 242 0
 619 0024 0122     		movs	r2, #1
 620 0026 094B     		ldr	r3, .L47+4
 621 0028 1A70     		strb	r2, [r3]
 244:pids.c        **** 		queue_enqueue(E120_DEVICE_LABEL, E120_SET_COMMAND, NULL, 0);
 622              		.loc 1 244 0
 623 002a 3221     		movs	r1, #50
 624 002c 2046     		mov	r0, r4
 625 002e FFF7FEFF 		bl	RDM_RespondTimer
 626              	.LVL66:
 245:pids.c        **** 	}
 627              		.loc 1 245 0
 628 0032 2B46     		mov	r3, r5
 629 0034 2A46     		mov	r2, r5
 630 0036 3021     		movs	r1, #48
 631 0038 8220     		movs	r0, #130
 632 003a FFF7FEFF 		bl	queue_enqueue
 633              	.LVL67:
 634              	.LBE5:
 248:pids.c        **** 
 635              		.loc 1 248 0
 636 003e 0020     		movs	r0, #0
 637 0040 38BD     		pop	{r3, r4, r5, pc}
 638              	.LVL68:
 639              	.L46:
 640              		.cfi_def_cfa_offset 0
 641              		.cfi_restore 3
 642              		.cfi_restore 4
 643              		.cfi_restore 5
 644              		.cfi_restore 14
 645 0042 0020     		movs	r0, #0
 646              	.LVL69:
 647 0044 7047     		bx	lr
 648              	.L48:
 649 0046 00BF     		.align	2
 650              	.L47:
 651 0048 09000000 		.word	RDM+9
 652 004c 00000000 		.word	blSaveToRDM
 653              		.cfi_endproc
 654              	.LFE6:
 655              		.size	setDeviceLabel, .-setDeviceLabel
 656              		.section	.text.setSetUID,"ax",%progbits
 657              		.align	2
 658              		.global	setSetUID
 659              		.thumb
 660              		.thumb_func
 661              		.type	setSetUID, %function
 662              	setSetUID:
 663              	.LFB12:
 300:pids.c        **** 
 301:pids.c        **** extern bool blRDMRunCalibration;
 302:pids.c        **** bool getPerformSelftest(structRDMPacket *RDMPacket, PACKET_DEST Dest)
 303:pids.c        **** {
ARM GAS  C:\Users\jimvr\AppData\Local\Temp\ccv1afZN.s 			page 19


 304:pids.c        **** 	if(Dest == DEVICE)
 305:pids.c        **** 	{
 306:pids.c        **** 		RDMPacket->byParameterData[0] = blRDMRunCalibration;
 307:pids.c        **** 		RDMPacket->byParameterLength = 1;
 308:pids.c        **** 		return true;
 309:pids.c        **** 	}
 310:pids.c        **** 	else
 311:pids.c        **** 		return false;
 312:pids.c        **** }
 313:pids.c        **** 
 314:pids.c        **** bool setSetUID(structRDMPacket *RDMPacket, PACKET_DEST Dest)
 315:pids.c        **** {
 664              		.loc 1 315 0
 665              		.cfi_startproc
 666              		@ args = 0, pretend = 0, frame = 0
 667              		@ frame_needed = 0, uses_anonymous_args = 0
 668              	.LVL70:
 669 0000 10B5     		push	{r4, lr}
 670              		.cfi_def_cfa_offset 8
 671              		.cfi_offset 4, -8
 672              		.cfi_offset 14, -4
 316:pids.c        **** 	if(RDMPacket->byParameterLength == 4)
 673              		.loc 1 316 0
 674 0002 C37D     		ldrb	r3, [r0, #23]	@ zero_extendqisi2
 675 0004 042B     		cmp	r3, #4
 676 0006 10D1     		bne	.L50
 677              	.LBB6:
 317:pids.c        **** 	{
 318:pids.c        **** 		uint8 UID[4] = {0};
 319:pids.c        **** 		memcpy(UID, RDMPacket->byParameterData, 4);
 320:pids.c        **** 		
 321:pids.c        **** 		if(Dest == DEVICE)
 678              		.loc 1 321 0
 679 0008 0129     		cmp	r1, #1
 680 000a 04D1     		bne	.L51
 322:pids.c        **** 		{
 323:pids.c        **** 			RDMPacket->byResponseType = E120_RESPONSE_TYPE_ACK;
 681              		.loc 1 323 0
 682 000c 0023     		movs	r3, #0
 683 000e 0374     		strb	r3, [r0, #16]
 324:pids.c        **** 			RDMPacket->byParameterLength = 0;
 684              		.loc 1 324 0
 685 0010 C375     		strb	r3, [r0, #23]
 325:pids.c        **** 			RDM_RespondMsg(RDMPacket);
 686              		.loc 1 325 0
 687 0012 FFF7FEFF 		bl	RDM_RespondMsg
 688              	.LVL71:
 689              	.L51:
 326:pids.c        **** 		}
 327:pids.c        **** 		
 328:pids.c        **** //		memcpy(&RDM.RDM_DevID[2], UID, 4);
 329:pids.c        ****         sprintf((char *)RDM.stRDMIdentity, _RDM_IDENTITY);
 690              		.loc 1 329 0
 691 0016 084C     		ldr	r4, .L54
 692 0018 084B     		ldr	r3, .L54+4
 693 001a 07CB     		ldmia	r3!, {r0, r1, r2}
 694 001c 2060     		str	r0, [r4]	@ unaligned
ARM GAS  C:\Users\jimvr\AppData\Local\Temp\ccv1afZN.s 			page 20


 695 001e 6160     		str	r1, [r4, #4]	@ unaligned
 696 0020 A260     		str	r2, [r4, #8]	@ unaligned
 330:pids.c        **** 		blSaveToRDM = true;
 697              		.loc 1 330 0
 698 0022 0122     		movs	r2, #1
 699 0024 064B     		ldr	r3, .L54+8
 700 0026 1A70     		strb	r2, [r3]
 701              	.LBE6:
 702 0028 03E0     		b	.L52
 703              	.LVL72:
 704              	.L50:
 331:pids.c        **** 	}
 332:pids.c        **** 	else if(Dest == DEVICE)
 705              		.loc 1 332 0
 706 002a 0129     		cmp	r1, #1
 707 002c 01D1     		bne	.L52
 333:pids.c        **** 		RDM_RespondNACK(RDMPacket, E120_NR_FORMAT_ERROR);
 708              		.loc 1 333 0
 709 002e FFF7FEFF 		bl	RDM_RespondNACK
 710              	.LVL73:
 711              	.L52:
 334:pids.c        **** 		
 335:pids.c        **** 	return false;
 336:pids.c        **** }
 712              		.loc 1 336 0
 713 0032 0020     		movs	r0, #0
 714 0034 10BD     		pop	{r4, pc}
 715              	.L55:
 716 0036 00BF     		.align	2
 717              	.L54:
 718 0038 09000000 		.word	RDM+9
 719 003c 00000000 		.word	.LC0
 720 0040 00000000 		.word	blSaveToRDM
 721              		.cfi_endproc
 722              	.LFE12:
 723              		.size	setSetUID, .-setSetUID
 724              		.section	.text.getPerformSelftest,"ax",%progbits
 725              		.align	2
 726              		.global	getPerformSelftest
 727              		.thumb
 728              		.thumb_func
 729              		.type	getPerformSelftest, %function
 730              	getPerformSelftest:
 731              	.LFB11:
 303:pids.c        **** 	if(Dest == DEVICE)
 732              		.loc 1 303 0
 733              		.cfi_startproc
 734              		@ args = 0, pretend = 0, frame = 0
 735              		@ frame_needed = 0, uses_anonymous_args = 0
 736              		@ link register save eliminated.
 737              	.LVL74:
 304:pids.c        **** 	{
 738              		.loc 1 304 0
 739 0000 0129     		cmp	r1, #1
 740 0002 06D1     		bne	.L58
 306:pids.c        **** 		RDMPacket->byParameterLength = 1;
 741              		.loc 1 306 0
ARM GAS  C:\Users\jimvr\AppData\Local\Temp\ccv1afZN.s 			page 21


 742 0004 044B     		ldr	r3, .L59
 743 0006 1B78     		ldrb	r3, [r3]	@ zero_extendqisi2
 744 0008 0376     		strb	r3, [r0, #24]
 307:pids.c        **** 		return true;
 745              		.loc 1 307 0
 746 000a 0123     		movs	r3, #1
 747 000c C375     		strb	r3, [r0, #23]
 308:pids.c        **** 	}
 748              		.loc 1 308 0
 749 000e 1846     		mov	r0, r3
 750              	.LVL75:
 751 0010 7047     		bx	lr
 752              	.LVL76:
 753              	.L58:
 311:pids.c        **** }
 754              		.loc 1 311 0
 755 0012 0020     		movs	r0, #0
 756              	.LVL77:
 312:pids.c        **** 
 757              		.loc 1 312 0
 758 0014 7047     		bx	lr
 759              	.L60:
 760 0016 00BF     		.align	2
 761              	.L59:
 762 0018 00000000 		.word	blRDMRunCalibration
 763              		.cfi_endproc
 764              	.LFE11:
 765              		.size	getPerformSelftest, .-getPerformSelftest
 766              		.global	dmxPtys
 767              		.global	RDMPIDStoreLength
 768              		.global	RDMPIDStore
 769              		.comm	IsSlave,1,1
 770              		.comm	isInTempFault,1,1
 771              		.comm	uiTempFaultCount,4,4
 772              		.comm	structeeprom,2,4
 773              		.section	.rodata
 774              		.align	2
 775              		.type	RDMPIDStoreLength, %object
 776              		.size	RDMPIDStoreLength, 1
 777              	RDMPIDStoreLength:
 778 0000 08       		.byte	8
 779 0001 000000   		.space	3
 780              		.type	RDMPIDStore, %object
 781              		.size	RDMPIDStore, 264
 782              	RDMPIDStore:
 783 0004 2000     		.short	32
 784 0006 00000000 		.space	19
 784      00000000 
 784      00000000 
 784      00000000 
 784      000000
 785 0019 01       		.byte	1
 786 001a 00       		.byte	0
 787 001b 00000000 		.4byte	getQueuedMessage
 788 001f 00000000 		.4byte	0
 789 0023 0000     		.space	2
 790 0025 E000     		.2byte	224
ARM GAS  C:\Users\jimvr\AppData\Local\Temp\ccv1afZN.s 			page 22


 791 0027 00000000 		.space	19
 791      00000000 
 791      00000000 
 791      00000000 
 791      000000
 792 003a 00       		.byte	0
 793 003b 01       		.byte	1
 794 003c 00000000 		.4byte	getDMXPersonality
 795 0040 00000000 		.4byte	setDMXPersonality
 796 0044 0000     		.space	2
 797 0046 E100     		.short	225
 798 0048 00000000 		.space	19
 798      00000000 
 798      00000000 
 798      00000000 
 798      000000
 799 005b 01       		.byte	1
 800 005c 00       		.byte	0
 801 005d 00000000 		.4byte	getDMXPersonalityDescription
 802 0061 00000000 		.4byte	0
 803 0065 0000     		.space	2
 804 0067 8200     		.2byte	130
 805 0069 00000000 		.space	19
 805      00000000 
 805      00000000 
 805      00000000 
 805      000000
 806 007c 00       		.byte	0
 807 007d 21       		.byte	33
 808 007e 00000000 		.4byte	getDeviceLabel
 809 0082 00000000 		.4byte	setDeviceLabel
 810 0086 00       		.space	1
 811 0087 01       		.byte	1
 812 0088 8000     		.short	128
 813 008a 00000000 		.space	19
 813      00000000 
 813      00000000 
 813      00000000 
 813      000000
 814 009d 00       		.byte	0
 815 009e 00       		.byte	0
 816 009f 00000000 		.4byte	getDeviceModelDescription
 817 00a3 00000000 		.4byte	0
 818 00a7 00       		.space	1
 819 00a8 01       		.byte	1
 820 00a9 8100     		.2byte	129
 821 00ab 00000000 		.space	19
 821      00000000 
 821      00000000 
 821      00000000 
 821      000000
 822 00be 00       		.byte	0
 823 00bf 00       		.byte	0
 824 00c0 00000000 		.4byte	getManufacturerLabel
 825 00c4 00000000 		.4byte	0
 826 00c8 00       		.space	1
 827 00c9 01       		.byte	1
ARM GAS  C:\Users\jimvr\AppData\Local\Temp\ccv1afZN.s 			page 23


 828 00ca F000     		.short	240
 829 00cc 00000000 		.space	19
 829      00000000 
 829      00000000 
 829      00000000 
 829      000000
 830 00df 00       		.byte	0
 831 00e0 02       		.byte	2
 832 00e1 00000000 		.4byte	getDMXStartAddress
 833 00e5 00000000 		.4byte	setDMXStartAddress
 834 00e9 01       		.byte	1
 835 00ea 00       		.space	1
 836 00eb 00E1     		.2byte	-7936
 837 00ed 00000000 		.space	19
 837      00000000 
 837      00000000 
 837      00000000 
 837      000000
 838 0100 00       		.byte	0
 839 0101 04       		.byte	4
 840 0102 00000000 		.4byte	0
 841 0106 00000000 		.4byte	setSetUID
 842 010a 01       		.byte	1
 843 010b 00       		.space	1
 844              		.data
 845              		.align	2
 846              		.set	.LANCHOR0,. + 0
 847              		.type	dmxPtys, %object
 848              		.size	dmxPtys, 32
 849              	dmxPtys:
 850 0000 0600     		.short	6
 851 0002 0000     		.space	2
 852 0004 0C000000 		.word	.LC1
 853 0008 0C00     		.short	12
 854 000a 0000     		.space	2
 855 000c 18000000 		.word	.LC2
 856 0010 0100     		.short	1
 857 0012 0000     		.space	2
 858 0014 24000000 		.word	.LC3
 859 0018 0200     		.short	2
 860 001a 0000     		.space	2
 861 001c 30000000 		.word	.LC4
 862              		.section	.rodata.str1.4,"aMS",%progbits,1
 863              		.align	2
 864              	.LC0:
 865 0000 43696E65 		.ascii	"Cineo 6Chan\000"
 865      6F203643 
 865      68616E00 
 866              	.LC1:
 867 000c 36636820 		.ascii	"6ch 8Bit\000"
 867      38426974 
 867      00
 868 0015 000000   		.space	3
 869              	.LC2:
 870 0018 36636820 		.ascii	"6ch 16Bit\000"
 870      31364269 
 870      7400
ARM GAS  C:\Users\jimvr\AppData\Local\Temp\ccv1afZN.s 			page 24


 871 0022 0000     		.space	2
 872              	.LC3:
 873 0024 31636820 		.ascii	"1ch 8Bit\000"
 873      38426974 
 873      00
 874 002d 000000   		.space	3
 875              	.LC4:
 876 0030 31636820 		.ascii	"1ch 16Bit\000"
 876      31364269 
 876      7400
 877              		.text
 878              	.Letext0:
 879              		.file 2 "cytypes.h"
 880              		.file 3 "main.h"
 881              		.file 4 "pids.h"
 882              		.file 5 "rdm.h"
 883              		.file 6 "queue.h"
 884              		.file 7 "<built-in>"