ARM GAS  C:\Users\jimvr\AppData\Local\Temp\ccpoIzzT.s 			page 1


   1              		.syntax unified
   2              		.cpu cortex-m3
   3              		.fpu softvfp
   4              		.eabi_attribute 20, 1
   5              		.eabi_attribute 21, 1
   6              		.eabi_attribute 23, 3
   7              		.eabi_attribute 24, 1
   8              		.eabi_attribute 25, 1
   9              		.eabi_attribute 26, 1
  10              		.eabi_attribute 30, 1
  11              		.eabi_attribute 34, 1
  12              		.eabi_attribute 18, 4
  13              		.thumb
  14              		.syntax unified
  15              		.file	"queue.c"
  16              		.text
  17              	.Ltext0:
  18              		.cfi_sections	.debug_frame
  19              		.section	.text.queue_dequeue,"ax",%progbits
  20              		.align	2
  21              		.global	queue_dequeue
  22              		.thumb
  23              		.thumb_func
  24              		.type	queue_dequeue, %function
  25              	queue_dequeue:
  26              	.LFB1:
  27              		.file 1 "queue.c"
   1:queue.c       **** /*
   2:queue.c       **** 
   3:queue.c       ****     queue.c
   4:queue.c       ****     *****************************************************************************
   5:queue.c       ****     * Copyright (2014 - 2019) The NED Group
   6:queue.c       ****     ******************************************************************************
   7:queue.c       ****     see main.c for full disclaimer
   8:queue.c       ****     
   9:queue.c       **** */
  10:queue.c       ****     
  11:queue.c       **** 
  12:queue.c       **** #include <stdbool.h>
  13:queue.c       **** #include "queue.h"
  14:queue.c       **** #include "rdm.h"
  15:queue.c       **** 
  16:queue.c       **** extern structQueueItem Queue[QUEUE_LENGTH];
  17:queue.c       **** extern uint8 QueueMemory[QUEUE_MEMORY];
  18:queue.c       **** extern uint8 QueueIndex;
  19:queue.c       **** extern uint8* QueueMemPtr;
  20:queue.c       **** extern uint8 QueueMemLen;
  21:queue.c       **** 
  22:queue.c       **** extern bool RDM_pendingDequeue;
  23:queue.c       **** 
  24:queue.c       **** bool queue_enqueue(uint16 parameterID, uint8 commandClass, uint8* Data, uint8 DataLength)
  25:queue.c       **** {
  26:queue.c       ****     structQueueItem QI;
  27:queue.c       ****     QI.uiParameterID = CYSWAP_ENDIAN16(parameterID);
  28:queue.c       ****     QI.byCommandClass = commandClass;
  29:queue.c       **** 
  30:queue.c       ****     if (DataLength > QueueMemLen || QueueIndex >= QUEUE_LENGTH)
ARM GAS  C:\Users\jimvr\AppData\Local\Temp\ccpoIzzT.s 			page 2


  31:queue.c       ****         queue_dequeue();
  32:queue.c       **** 
  33:queue.c       ****     QI.byParameterData = QueueMemPtr;
  34:queue.c       ****     QI.byParameterLength = DataLength;
  35:queue.c       ****     memcpy(QueueMemPtr, Data, DataLength);
  36:queue.c       **** 
  37:queue.c       ****     QueueMemPtr += DataLength;
  38:queue.c       ****     QueueMemLen -= DataLength;
  39:queue.c       **** 
  40:queue.c       ****     Queue[QueueIndex] = QI;
  41:queue.c       ****     QueueIndex++;
  42:queue.c       **** 
  43:queue.c       ****     RDM_pendingDequeue = true;
  44:queue.c       ****     return true;
  45:queue.c       **** }
  46:queue.c       **** 
  47:queue.c       **** void queue_dequeue()
  48:queue.c       **** {
  28              		.loc 1 48 0
  29              		.cfi_startproc
  30              		@ args = 0, pretend = 0, frame = 0
  31              		@ frame_needed = 0, uses_anonymous_args = 0
  32 0000 F8B5     		push	{r3, r4, r5, r6, r7, lr}
  33              		.cfi_def_cfa_offset 24
  34              		.cfi_offset 3, -24
  35              		.cfi_offset 4, -20
  36              		.cfi_offset 5, -16
  37              		.cfi_offset 6, -12
  38              		.cfi_offset 7, -8
  39              		.cfi_offset 14, -4
  49:queue.c       ****     uint8 memLen = Queue[0].byParameterLength;
  40              		.loc 1 49 0
  41 0002 184B     		ldr	r3, .L7
  42 0004 DD78     		ldrb	r5, [r3, #3]	@ zero_extendqisi2
  43              	.LVL0:
  50:queue.c       ****     uint8 i;
  51:queue.c       **** 
  52:queue.c       ****     if (!QueueIndex)
  44              		.loc 1 52 0
  45 0006 184B     		ldr	r3, .L7+4
  46 0008 1E78     		ldrb	r6, [r3]	@ zero_extendqisi2
  47 000a 56B3     		cbz	r6, .L1
  53:queue.c       ****         return;
  54:queue.c       **** 
  55:queue.c       ****     memmove(&Queue, &Queue[1], QUEUE_LENGTH - 1);
  48              		.loc 1 55 0
  49 000c 1749     		ldr	r1, .L7+8
  50 000e A1F10807 		sub	r7, r1, #8
  51 0012 0922     		movs	r2, #9
  52 0014 3846     		mov	r0, r7
  53 0016 FFF7FEFF 		bl	memmove
  54              	.LVL1:
  56:queue.c       ****     memset(&Queue[QUEUE_LENGTH - 1], 0, sizeof(structQueueItem));
  55              		.loc 1 56 0
  56 001a 0024     		movs	r4, #0
  57 001c BC64     		str	r4, [r7, #72]	@ unaligned
  58 001e FC64     		str	r4, [r7, #76]	@ unaligned
ARM GAS  C:\Users\jimvr\AppData\Local\Temp\ccpoIzzT.s 			page 3


  57:queue.c       **** 
  58:queue.c       ****     memmove(QueueMemory, &QueueMemory[memLen], QUEUE_MEMORY - memLen);
  59              		.loc 1 58 0
  60 0020 1348     		ldr	r0, .L7+12
  61 0022 C5F11402 		rsb	r2, r5, #20
  62 0026 4119     		adds	r1, r0, r5
  63 0028 FFF7FEFF 		bl	memmove
  64              	.LVL2:
  59:queue.c       **** 
  60:queue.c       ****     for (i = 0; i < QUEUE_LENGTH; i++)
  65              		.loc 1 60 0
  66 002c 2346     		mov	r3, r4
  67 002e 0BE0     		b	.L3
  68              	.LVL3:
  69              	.L5:
  61:queue.c       ****         if (Queue[i].uiParameterID)
  70              		.loc 1 61 0
  71 0030 0C4A     		ldr	r2, .L7
  72 0032 32F83320 		ldrh	r2, [r2, r3, lsl #3]	@ unaligned
  73 0036 2AB1     		cbz	r2, .L4
  62:queue.c       ****             Queue[i].byParameterData -= memLen;
  74              		.loc 1 62 0
  75 0038 0A4A     		ldr	r2, .L7
  76 003a 02EBC302 		add	r2, r2, r3, lsl #3
  77 003e 5168     		ldr	r1, [r2, #4]	@ unaligned
  78 0040 491B     		subs	r1, r1, r5
  79 0042 5160     		str	r1, [r2, #4]	@ unaligned
  80              	.L4:
  60:queue.c       ****         if (Queue[i].uiParameterID)
  81              		.loc 1 60 0 discriminator 2
  82 0044 0133     		adds	r3, r3, #1
  83              	.LVL4:
  84 0046 DBB2     		uxtb	r3, r3
  85              	.LVL5:
  86              	.L3:
  60:queue.c       ****         if (Queue[i].uiParameterID)
  87              		.loc 1 60 0 is_stmt 0 discriminator 1
  88 0048 092B     		cmp	r3, #9
  89 004a F1D9     		bls	.L5
  63:queue.c       **** 
  64:queue.c       ****     QueueMemPtr -= memLen;
  90              		.loc 1 64 0 is_stmt 1
  91 004c 094A     		ldr	r2, .L7+16
  92 004e 1368     		ldr	r3, [r2]
  93              	.LVL6:
  94 0050 5B1B     		subs	r3, r3, r5
  95 0052 1360     		str	r3, [r2]
  65:queue.c       ****     QueueMemLen += memLen;
  96              		.loc 1 65 0
  97 0054 084A     		ldr	r2, .L7+20
  98 0056 1378     		ldrb	r3, [r2]	@ zero_extendqisi2
  99 0058 1D44     		add	r5, r5, r3
 100              	.LVL7:
 101 005a 1570     		strb	r5, [r2]
  66:queue.c       ****     QueueIndex--;
 102              		.loc 1 66 0
 103 005c 013E     		subs	r6, r6, #1
ARM GAS  C:\Users\jimvr\AppData\Local\Temp\ccpoIzzT.s 			page 4


 104 005e 024B     		ldr	r3, .L7+4
 105 0060 1E70     		strb	r6, [r3]
 106              	.L1:
 107 0062 F8BD     		pop	{r3, r4, r5, r6, r7, pc}
 108              	.L8:
 109              		.align	2
 110              	.L7:
 111 0064 00000000 		.word	Queue
 112 0068 00000000 		.word	QueueIndex
 113 006c 08000000 		.word	Queue+8
 114 0070 00000000 		.word	QueueMemory
 115 0074 00000000 		.word	QueueMemPtr
 116 0078 00000000 		.word	QueueMemLen
 117              		.cfi_endproc
 118              	.LFE1:
 119              		.size	queue_dequeue, .-queue_dequeue
 120              		.section	.text.queue_enqueue,"ax",%progbits
 121              		.align	2
 122              		.global	queue_enqueue
 123              		.thumb
 124              		.thumb_func
 125              		.type	queue_enqueue, %function
 126              	queue_enqueue:
 127              	.LFB0:
  25:queue.c       ****     structQueueItem QI;
 128              		.loc 1 25 0
 129              		.cfi_startproc
 130              		@ args = 0, pretend = 0, frame = 8
 131              		@ frame_needed = 0, uses_anonymous_args = 0
 132              	.LVL8:
 133 0000 70B5     		push	{r4, r5, r6, lr}
 134              		.cfi_def_cfa_offset 16
 135              		.cfi_offset 4, -16
 136              		.cfi_offset 5, -12
 137              		.cfi_offset 6, -8
 138              		.cfi_offset 14, -4
 139 0002 82B0     		sub	sp, sp, #8
 140              		.cfi_def_cfa_offset 24
 141 0004 1646     		mov	r6, r2
 142 0006 1C46     		mov	r4, r3
  27:queue.c       ****     QI.byCommandClass = commandClass;
 143              		.loc 1 27 0
 144 0008 40BA     		rev16	r0, r0
 145              	.LVL9:
 146 000a ADF80000 		strh	r0, [sp]	@ movhi
  28:queue.c       **** 
 147              		.loc 1 28 0
 148 000e 8DF80210 		strb	r1, [sp, #2]
  30:queue.c       ****         queue_dequeue();
 149              		.loc 1 30 0
 150 0012 154B     		ldr	r3, .L13
 151              	.LVL10:
 152 0014 1B78     		ldrb	r3, [r3]	@ zero_extendqisi2
 153 0016 A342     		cmp	r3, r4
 154 0018 03D3     		bcc	.L10
  30:queue.c       ****         queue_dequeue();
 155              		.loc 1 30 0 is_stmt 0 discriminator 1
ARM GAS  C:\Users\jimvr\AppData\Local\Temp\ccpoIzzT.s 			page 5


 156 001a 144B     		ldr	r3, .L13+4
 157 001c 1B78     		ldrb	r3, [r3]	@ zero_extendqisi2
 158 001e 092B     		cmp	r3, #9
 159 0020 01D9     		bls	.L11
 160              	.L10:
  31:queue.c       **** 
 161              		.loc 1 31 0 is_stmt 1
 162 0022 FFF7FEFF 		bl	queue_dequeue
 163              	.LVL11:
 164              	.L11:
  33:queue.c       ****     QI.byParameterLength = DataLength;
 165              		.loc 1 33 0
 166 0026 124D     		ldr	r5, .L13+8
 167 0028 2868     		ldr	r0, [r5]
 168 002a 0190     		str	r0, [sp, #4]
  34:queue.c       ****     memcpy(QueueMemPtr, Data, DataLength);
 169              		.loc 1 34 0
 170 002c 8DF80340 		strb	r4, [sp, #3]
  35:queue.c       **** 
 171              		.loc 1 35 0
 172 0030 2246     		mov	r2, r4
 173 0032 3146     		mov	r1, r6
 174 0034 FFF7FEFF 		bl	memcpy
 175              	.LVL12:
  37:queue.c       ****     QueueMemLen -= DataLength;
 176              		.loc 1 37 0
 177 0038 2B68     		ldr	r3, [r5]
 178 003a 2344     		add	r3, r3, r4
 179 003c 2B60     		str	r3, [r5]
  38:queue.c       **** 
 180              		.loc 1 38 0
 181 003e 0A4A     		ldr	r2, .L13
 182 0040 1378     		ldrb	r3, [r2]	@ zero_extendqisi2
 183 0042 1C1B     		subs	r4, r3, r4
 184 0044 1470     		strb	r4, [r2]
  40:queue.c       ****     QueueIndex++;
 185              		.loc 1 40 0
 186 0046 094C     		ldr	r4, .L13+4
 187 0048 2378     		ldrb	r3, [r4]	@ zero_extendqisi2
 188 004a 0A4D     		ldr	r5, .L13+12
 189 004c 05EBC306 		add	r6, r5, r3, lsl #3
 190              	.LVL13:
 191 0050 6A46     		mov	r2, sp
 192 0052 03CA     		ldmia	r2!, {r0, r1}
 193 0054 45F83300 		str	r0, [r5, r3, lsl #3]	@ unaligned
 194 0058 7160     		str	r1, [r6, #4]	@ unaligned
  41:queue.c       **** 
 195              		.loc 1 41 0
 196 005a 0133     		adds	r3, r3, #1
 197 005c 2370     		strb	r3, [r4]
  43:queue.c       ****     return true;
 198              		.loc 1 43 0
 199 005e 0120     		movs	r0, #1
 200 0060 054B     		ldr	r3, .L13+16
 201 0062 1870     		strb	r0, [r3]
  45:queue.c       **** 
 202              		.loc 1 45 0
ARM GAS  C:\Users\jimvr\AppData\Local\Temp\ccpoIzzT.s 			page 6


 203 0064 02B0     		add	sp, sp, #8
 204              		.cfi_def_cfa_offset 16
 205              		@ sp needed
 206 0066 70BD     		pop	{r4, r5, r6, pc}
 207              	.LVL14:
 208              	.L14:
 209              		.align	2
 210              	.L13:
 211 0068 00000000 		.word	QueueMemLen
 212 006c 00000000 		.word	QueueIndex
 213 0070 00000000 		.word	QueueMemPtr
 214 0074 00000000 		.word	Queue
 215 0078 00000000 		.word	RDM_pendingDequeue
 216              		.cfi_endproc
 217              	.LFE0:
 218              		.size	queue_enqueue, .-queue_enqueue
 219              		.section	.text.queue_front,"ax",%progbits
 220              		.align	2
 221              		.global	queue_front
 222              		.thumb
 223              		.thumb_func
 224              		.type	queue_front, %function
 225              	queue_front:
 226              	.LFB2:
  67:queue.c       **** }
  68:queue.c       **** 
  69:queue.c       **** structQueueItem queue_front()
  70:queue.c       **** {
 227              		.loc 1 70 0
 228              		.cfi_startproc
 229              		@ args = 0, pretend = 0, frame = 0
 230              		@ frame_needed = 0, uses_anonymous_args = 0
 231              		@ link register save eliminated.
 232              	.LVL15:
  71:queue.c       ****     return Queue[0];
 233              		.loc 1 71 0
 234 0000 024A     		ldr	r2, .L16
 235 0002 1168     		ldr	r1, [r2]	@ unaligned
 236 0004 5268     		ldr	r2, [r2, #4]	@ unaligned
 237 0006 0160     		str	r1, [r0]	@ unaligned
 238 0008 4260     		str	r2, [r0, #4]	@ unaligned
  72:queue.c       **** }
 239              		.loc 1 72 0
 240 000a 7047     		bx	lr
 241              	.L17:
 242              		.align	2
 243              	.L16:
 244 000c 00000000 		.word	Queue
 245              		.cfi_endproc
 246              	.LFE2:
 247              		.size	queue_front, .-queue_front
 248              		.section	.text.queue_count,"ax",%progbits
 249              		.align	2
 250              		.global	queue_count
 251              		.thumb
 252              		.thumb_func
 253              		.type	queue_count, %function
ARM GAS  C:\Users\jimvr\AppData\Local\Temp\ccpoIzzT.s 			page 7


 254              	queue_count:
 255              	.LFB3:
  73:queue.c       **** 
  74:queue.c       **** uint8 queue_count()
  75:queue.c       **** {
 256              		.loc 1 75 0
 257              		.cfi_startproc
 258              		@ args = 0, pretend = 0, frame = 0
 259              		@ frame_needed = 0, uses_anonymous_args = 0
 260              		@ link register save eliminated.
  76:queue.c       ****     return QueueIndex;
  77:queue.c       **** }
 261              		.loc 1 77 0
 262 0000 014B     		ldr	r3, .L19
 263 0002 1878     		ldrb	r0, [r3]	@ zero_extendqisi2
 264 0004 7047     		bx	lr
 265              	.L20:
 266 0006 00BF     		.align	2
 267              	.L19:
 268 0008 00000000 		.word	QueueIndex
 269              		.cfi_endproc
 270              	.LFE3:
 271              		.size	queue_count, .-queue_count
 272              		.text
 273              	.Letext0:
 274              		.file 2 "cytypes.h"
 275              		.file 3 "queue.h"
 276              		.file 4 "<built-in>"