ARM GAS  C:\Users\jimvr\AppData\Local\Temp\cc53b030.s 			page 1


   1              		.syntax unified
   2              		.cpu cortex-m3
   3              		.fpu softvfp
   4              		.eabi_attribute 20, 1
   5              		.eabi_attribute 21, 1
   6              		.eabi_attribute 23, 3
   7              		.eabi_attribute 24, 1
   8              		.eabi_attribute 25, 1
   9              		.eabi_attribute 26, 1
  10              		.eabi_attribute 30, 1
  11              		.eabi_attribute 34, 1
  12              		.eabi_attribute 18, 4
  13              		.thumb
  14              		.syntax unified
  15              		.file	"rdm.c"
  16              		.text
  17              	.Ltext0:
  18              		.cfi_sections	.debug_frame
  19              		.section	.text.RDM_Init,"ax",%progbits
  20              		.align	2
  21              		.global	RDM_Init
  22              		.thumb
  23              		.thumb_func
  24              		.type	RDM_Init, %function
  25              	RDM_Init:
  26              	.LFB1:
  27              		.file 1 "rdm.c"
   1:rdm.c         **** /*
   2:rdm.c         **** 
   3:rdm.c         ****     rdm.c
   4:rdm.c         ****     *****************************************************************************
   5:rdm.c         ****     * Copyright (2019 - 2020) The NED Group
   6:rdm.c         ****     ******************************************************************************
   7:rdm.c         ****     see main.c for full disclaimer
   8:rdm.c         ****     
   9:rdm.c         **** */
  10:rdm.c         ****     
  11:rdm.c         **** 
  12:rdm.c         **** #include <stdio.h>
  13:rdm.c         **** #include <stdbool.h>
  14:rdm.c         **** #include "rdm.h"
  15:rdm.c         **** #include "rdmESTA.h"
  16:rdm.c         **** #include "pids.h"
  17:rdm.c         **** #include "queue.h"
  18:rdm.c         **** #include "main.h"
  19:rdm.c         **** 
  20:rdm.c         **** extern structRDMPacket RDMResPacket;
  21:rdm.c         **** extern RDMSTATE state;
  22:rdm.c         **** extern uint8 paramCount;
  23:rdm.c         **** extern uint16 calculatedChecksum;
  24:rdm.c         **** extern uint16 receivedChecksum;
  25:rdm.c         **** extern bool isDevice;
  26:rdm.c         **** extern bool isBroadcast;
  27:rdm.c         **** extern bool isVendorcast;
  28:rdm.c         **** 
  29:rdm.c         **** extern const structRDMParameter RDMPIDStore[];
  30:rdm.c         **** extern const uint8 RDMPIDStoreLength;
ARM GAS  C:\Users\jimvr\AppData\Local\Temp\cc53b030.s 			page 2


  31:rdm.c         **** extern bool isSubDevice;
  32:rdm.c         **** 
  33:rdm.c         **** extern bool RDM_pendingDequeue;
  34:rdm.c         **** extern bool RDM_Identify;
  35:rdm.c         **** 
  36:rdm.c         **** extern void (*TRANSMIT_RESPONSE)(const uint8*, uint8, uint8);
  37:rdm.c         **** 
  38:rdm.c         **** extern structRDM RDM;
  39:rdm.c         **** extern structDeviceInfo *DEVICEINFO;
  40:rdm.c         **** 
  41:rdm.c         **** extern uint16 dmxStartAddress;
  42:rdm.c         **** 
  43:rdm.c         **** void RDM_Init(uint8* deviceUID, structDeviceInfo *deviceInfo, uint16 dmxAddress, bool subDevice, vo
  44:rdm.c         **** {
  28              		.loc 1 44 0
  29              		.cfi_startproc
  30              		@ args = 4, pretend = 0, frame = 0
  31              		@ frame_needed = 0, uses_anonymous_args = 0
  32              		@ link register save eliminated.
  33              	.LVL0:
  34 0000 30B4     		push	{r4, r5}
  35              		.cfi_def_cfa_offset 8
  36              		.cfi_offset 4, -8
  37              		.cfi_offset 5, -4
  45:rdm.c         ****     memcpy(RDM.RDM_DevID, deviceUID, UID_LENGTH);
  38              		.loc 1 45 0
  39 0002 0C4C     		ldr	r4, .L5
  40 0004 0568     		ldr	r5, [r0]	@ unaligned
  41 0006 2560     		str	r5, [r4]	@ unaligned
  42 0008 8088     		ldrh	r0, [r0, #4]	@ unaligned
  43              	.LVL1:
  44 000a A080     		strh	r0, [r4, #4]	@ unaligned
  46:rdm.c         **** 	DEVICEINFO = deviceInfo;
  45              		.loc 1 46 0
  46 000c 0A48     		ldr	r0, .L5+4
  47 000e 0160     		str	r1, [r0]
  47:rdm.c         ****     if (!dmxAddress)
  48              		.loc 1 47 0
  49 0010 1046     		mov	r0, r2
  50 0012 0AB9     		cbnz	r2, .L2
  48:rdm.c         ****         dmxAddress = 0xFFFF;
  51              		.loc 1 48 0
  52 0014 4FF6FF70 		movw	r0, #65535
  53              	.L2:
  54              	.LVL2:
  49:rdm.c         ****     DEVICEINFO->uiDMXStartAddress = CYSWAP_ENDIAN16(dmxAddress);
  55              		.loc 1 49 0
  56 0018 40BA     		rev16	r0, r0
  57              	.LVL3:
  58 001a C881     		strh	r0, [r1, #14]	@ unaligned
  50:rdm.c         ****     DEVICEINFO->uiDMXPersonality = (uint16)RDM.stRDMPersonality + ((_RDM_PERSONALITY_COUNT - 1) << 
  59              		.loc 1 50 0
  60 001c 054A     		ldr	r2, .L5
  61 001e 127A     		ldrb	r2, [r2, #8]	@ zero_extendqisi2
  62 0020 02F58062 		add	r2, r2, #1024
  63 0024 8A81     		strh	r2, [r1, #12]	@ unaligned
  51:rdm.c         ****     isSubDevice = subDevice;
ARM GAS  C:\Users\jimvr\AppData\Local\Temp\cc53b030.s 			page 3


  64              		.loc 1 51 0
  65 0026 054A     		ldr	r2, .L5+8
  66 0028 1370     		strb	r3, [r2]
  52:rdm.c         ****     TRANSMIT_RESPONSE = transmitResponse;
  67              		.loc 1 52 0
  68 002a 054B     		ldr	r3, .L5+12
  69              	.LVL4:
  70 002c 029A     		ldr	r2, [sp, #8]
  71              	.LVL5:
  72 002e 1A60     		str	r2, [r3]
  53:rdm.c         **** }
  73              		.loc 1 53 0
  74 0030 30BC     		pop	{r4, r5}
  75              		.cfi_restore 5
  76              		.cfi_restore 4
  77              		.cfi_def_cfa_offset 0
  78              	.LVL6:
  79 0032 7047     		bx	lr
  80              	.L6:
  81              		.align	2
  82              	.L5:
  83 0034 00000000 		.word	RDM
  84 0038 00000000 		.word	DEVICEINFO
  85 003c 00000000 		.word	isSubDevice
  86 0040 00000000 		.word	TRANSMIT_RESPONSE
  87              		.cfi_endproc
  88              	.LFE1:
  89              		.size	RDM_Init, .-RDM_Init
  90              		.section	.text.RDM_DiscoveryResponse,"ax",%progbits
  91              		.align	2
  92              		.global	RDM_DiscoveryResponse
  93              		.thumb
  94              		.thumb_func
  95              		.type	RDM_DiscoveryResponse, %function
  96              	RDM_DiscoveryResponse:
  97              	.LFB3:
  54:rdm.c         **** 
  55:rdm.c         **** void RDM_HandleRequest(structRDMPacket* RDMPacket, PACKET_DEST PacketDest)
  56:rdm.c         **** {
  57:rdm.c         ****     static uint8 discMuteFlag = 0;
  58:rdm.c         ****     bool respondedFlag = false;
  59:rdm.c         **** 
  60:rdm.c         ****     if (!isSubDevice) {
  61:rdm.c         ****         if (CYSWAP_ENDIAN16(RDMPacket->uiSubDevice) > 1) {
  62:rdm.c         ****             RDM_RespondNACK(RDMPacket, E120_NR_SUB_DEVICE_OUT_OF_RANGE);
  63:rdm.c         ****             return;
  64:rdm.c         ****         }
  65:rdm.c         ****         switch (CYSWAP_ENDIAN16(RDMPacket->uiParameterID)) {
  66:rdm.c         ****         case E120_DISC_UN_MUTE:
  67:rdm.c         ****             if (!RDMPacket->byParameterLength) {
  68:rdm.c         ****                 discMuteFlag = 0;
  69:rdm.c         ****                 memset(RDMPacket->byParameterData, 0, 2);
  70:rdm.c         ****                 RDMPacket->byParameterLength = 2;
  71:rdm.c         ****                 respondedFlag = true;
  72:rdm.c         ****             } else
  73:rdm.c         ****                 return;
  74:rdm.c         ****             break;
ARM GAS  C:\Users\jimvr\AppData\Local\Temp\cc53b030.s 			page 4


  75:rdm.c         **** 
  76:rdm.c         ****         case E120_DISC_MUTE:
  77:rdm.c         ****             if (!RDMPacket->byParameterLength) {
  78:rdm.c         ****                 discMuteFlag = 1;
  79:rdm.c         ****                 memset(RDMPacket->byParameterData, 0, 2);
  80:rdm.c         ****                 RDMPacket->byParameterLength = 2;
  81:rdm.c         ****                 respondedFlag = true;
  82:rdm.c         ****             } else
  83:rdm.c         ****                 return;
  84:rdm.c         ****             break;
  85:rdm.c         **** 
  86:rdm.c         ****         case E120_DISC_UNIQUE_BRANCH:
  87:rdm.c         ****             if (!discMuteFlag)
  88:rdm.c         ****                 if (memcmp(RDM.RDM_DevID, RDMPacket->byParameterData, UID_LENGTH) >= 0
  89:rdm.c         ****                     && memcmp(RDM.RDM_DevID, &RDMPacket->byParameterData[6], UID_LENGTH) <= 0) {
  90:rdm.c         ****                     RDM_DiscoveryResponse();
  91:rdm.c         ****                     return;
  92:rdm.c         ****                 }
  93:rdm.c         ****             break;
  94:rdm.c         **** 
  95:rdm.c         ****         case E120_DEVICE_INFO:
  96:rdm.c         ****             if (RDMPacket->byCommandClass == E120_GET_COMMAND && !RDMPacket->byParameterLength) {
  97:rdm.c         ****                 memcpy(RDMPacket->byParameterData, DEVICEINFO, sizeof(structDeviceInfo));
  98:rdm.c         ****                 RDMPacket->byParameterLength = sizeof(structDeviceInfo);
  99:rdm.c         ****                 respondedFlag = true;
 100:rdm.c         ****             } else if (RDMPacket->byCommandClass == E120_SET_COMMAND) {
 101:rdm.c         ****                 RDM_RespondNACK(RDMPacket, E120_NR_UNSUPPORTED_COMMAND_CLASS);
 102:rdm.c         ****                 return;
 103:rdm.c         ****             } else {
 104:rdm.c         ****                 RDM_RespondNACK(RDMPacket, E120_NR_FORMAT_ERROR);
 105:rdm.c         ****                 return;
 106:rdm.c         ****             }
 107:rdm.c         ****             break;
 108:rdm.c         **** 
 109:rdm.c         ****         case E120_IDENTIFY_DEVICE:
 110:rdm.c         ****             if (RDMPacket->byCommandClass == E120_GET_COMMAND && !RDMPacket->byParameterLength) {
 111:rdm.c         ****                 RDMPacket->byParameterData[0] = RDM_Identify;
 112:rdm.c         ****                 RDMPacket->byParameterLength = 1;
 113:rdm.c         ****                 respondedFlag = true;
 114:rdm.c         ****             } else if (RDMPacket->byCommandClass == E120_SET_COMMAND && RDMPacket->byParameterLengt
 115:rdm.c         ****                 if (RDMPacket->byParameterData[0] >= 0 && RDMPacket->byParameterData[0] <= 1) {
 116:rdm.c         ****                     RDM_Identify = RDMPacket->byParameterData[0];
 117:rdm.c         ****                     RDMPacket->byParameterLength = 0;
 118:rdm.c         ****                     respondedFlag = true;
 119:rdm.c         ****                 } else {
 120:rdm.c         ****                     RDM_RespondNACK(RDMPacket, E120_NR_DATA_OUT_OF_RANGE);
 121:rdm.c         ****                     return;
 122:rdm.c         ****                 }
 123:rdm.c         ****             } else {
 124:rdm.c         ****                 RDM_RespondNACK(RDMPacket, E120_NR_FORMAT_ERROR);
 125:rdm.c         ****                 return;
 126:rdm.c         ****             }
 127:rdm.c         ****             break;
 128:rdm.c         **** 
 129:rdm.c         ****         case E120_SOFTWARE_VERSION_LABEL:
 130:rdm.c         ****             if (RDMPacket->byCommandClass == E120_GET_COMMAND && !RDMPacket->byParameterLength) {
 131:rdm.c         ****                 char softLabel[33];
ARM GAS  C:\Users\jimvr\AppData\Local\Temp\cc53b030.s 			page 5


 132:rdm.c         **** 
 133:rdm.c         ****                 sprintf(softLabel, "v%d.%02d build %d", VERSIONMAJOR, VERSIONMINOR, VERSIONBUILD);
 134:rdm.c         **** 
 135:rdm.c         ****                 strcpy((char*)RDMPacket->byParameterData, softLabel);
 136:rdm.c         ****                 RDMPacket->byParameterLength = strlen(softLabel);
 137:rdm.c         ****                 respondedFlag = true;
 138:rdm.c         ****             } else if (RDMPacket->byCommandClass == E120_SET_COMMAND) {
 139:rdm.c         ****                 RDM_RespondNACK(RDMPacket, E120_NR_UNSUPPORTED_COMMAND_CLASS);
 140:rdm.c         ****                 return;
 141:rdm.c         ****             } else {
 142:rdm.c         ****                 RDM_RespondNACK(RDMPacket, E120_NR_FORMAT_ERROR);
 143:rdm.c         ****                 return;
 144:rdm.c         ****             }
 145:rdm.c         ****             break;
 146:rdm.c         ****         }
 147:rdm.c         ****     } else if (CYSWAP_ENDIAN16(RDMPacket->uiSubDevice) != 1) {
 148:rdm.c         ****         switch (CYSWAP_ENDIAN16(RDMPacket->uiParameterID)) {
 149:rdm.c         ****         //Add PIDs to ignore here. Subdevice operation only.
 150:rdm.c         **** 
 151:rdm.c         ****         default:
 152:rdm.c         ****             return;
 153:rdm.c         ****             break;
 154:rdm.c         ****         }
 155:rdm.c         ****     }
 156:rdm.c         **** 
 157:rdm.c         ****     if (!respondedFlag) {
 158:rdm.c         ****         switch (CYSWAP_ENDIAN16(RDMPacket->uiParameterID)) {
 159:rdm.c         ****         case E120_SUPPORTED_PARAMETERS:
 160:rdm.c         ****             if (RDMPacket->byCommandClass == E120_GET_COMMAND && !RDMPacket->byParameterLength) {
 161:rdm.c         ****                 uint8 i, j;
 162:rdm.c         ****                 for (i = 0, j = 0; i < RDMPIDStoreLength; i++, j += 2) {
 163:rdm.c         ****                     if (!RDMPIDStore[i].blIsHidden) {
 164:rdm.c         ****                         RDMPacket->byParameterData[j + 0] = HI8(RDMPIDStore[i].uiParameterID);
 165:rdm.c         ****                         RDMPacket->byParameterData[j + 1] = LO8(RDMPIDStore[i].uiParameterID);
 166:rdm.c         ****                     } else
 167:rdm.c         ****                         j -= 2;
 168:rdm.c         ****                 }
 169:rdm.c         ****                 RDMPacket->byParameterLength = j;
 170:rdm.c         ****             } else if (RDMPacket->byCommandClass == E120_SET_COMMAND) {
 171:rdm.c         ****                 RDM_RespondNACK(RDMPacket, E120_NR_UNSUPPORTED_COMMAND_CLASS);
 172:rdm.c         ****                 return;
 173:rdm.c         ****             } else {
 174:rdm.c         ****                 RDM_RespondNACK(RDMPacket, E120_NR_FORMAT_ERROR);
 175:rdm.c         ****                 return;
 176:rdm.c         ****             }
 177:rdm.c         ****             break;
 178:rdm.c         **** 
 179:rdm.c         ****         case E120_PARAMETER_DESCRIPTION: {
 180:rdm.c         ****             uint8 i = 0;
 181:rdm.c         ****             bool hasCustomPID = false;
 182:rdm.c         **** 
 183:rdm.c         ****             for (i = 0; i < RDMPIDStoreLength; i++)
 184:rdm.c         ****                 if (RDMPIDStore[i].uiParameterID >= 0x8000 && !RDMPIDStore[i].blIsHidden)
 185:rdm.c         ****                     hasCustomPID = true;
 186:rdm.c         **** 
 187:rdm.c         ****             if (!hasCustomPID) {
 188:rdm.c         ****                 RDM_RespondNACK(RDMPacket, E120_NR_UNKNOWN_PID);
ARM GAS  C:\Users\jimvr\AppData\Local\Temp\cc53b030.s 			page 6


 189:rdm.c         ****                 return;
 190:rdm.c         ****             }
 191:rdm.c         ****         }
 192:rdm.c         ****             if (RDMPacket->byCommandClass == E120_GET_COMMAND && RDMPacket->byParameterLength == 2)
 193:rdm.c         ****                 const uint16 PID = UINT8_TO_UINT16(RDMPacket->byParameterData[0], RDMPacket->byPara
 194:rdm.c         ****                 const structRDMParameter* RDMParameter = RDM_LookupPID(PID);
 195:rdm.c         **** 
 196:rdm.c         ****                 if (RDMParameter != NULL && PID >= 0x8000) {
 197:rdm.c         ****                     uint8 descLen = strlen(RDMParameter->strDesc);
 198:rdm.c         ****                     RDMPacket->byParameterData[2] = (RDMParameter->byGetLength > RDMParameter->bySe
 199:rdm.c         ****                     RDMPacket->byParameterData[3] = RDMParameter->byDataType;
 200:rdm.c         ****                     RDMPacket->byParameterData[4] = (RDMParameter->getRequestHandler ? E120_CC_GET 
 201:rdm.c         ****                         | (RDMParameter->setRequestHandler ? E120_CC_SET : 0);
 202:rdm.c         ****                     RDMPacket->byParameterData[5] = 0;
 203:rdm.c         ****                     RDMPacket->byParameterData[6] = RDMParameter->byUnits;
 204:rdm.c         ****                     RDMPacket->byParameterData[7] = RDMParameter->byPrefix;
 205:rdm.c         ****                     memcpy(&RDMPacket->byParameterData[8], &RDMParameter->ulMinValue, sizeof(uint32
 206:rdm.c         ****                     memcpy(&RDMPacket->byParameterData[12], &RDMParameter->ulMaxValue, sizeof(uint3
 207:rdm.c         ****                     memcpy(&RDMPacket->byParameterData[16], &RDMParameter->ulDefValue, sizeof(uint3
 208:rdm.c         ****                     memcpy(&RDMPacket->byParameterData[20], RDMParameter->strDesc, descLen);
 209:rdm.c         ****                     RDMPacket->byParameterLength = 20 + descLen;
 210:rdm.c         ****                 } else {
 211:rdm.c         ****                     RDM_RespondNACK(RDMPacket, E120_NR_DATA_OUT_OF_RANGE);
 212:rdm.c         ****                     return;
 213:rdm.c         ****                 }
 214:rdm.c         ****             } else if (RDMPacket->byCommandClass == E120_SET_COMMAND) {
 215:rdm.c         ****                 RDM_RespondNACK(RDMPacket, E120_NR_UNSUPPORTED_COMMAND_CLASS);
 216:rdm.c         ****                 return;
 217:rdm.c         ****             } else {
 218:rdm.c         ****                 RDM_RespondNACK(RDMPacket, E120_NR_FORMAT_ERROR);
 219:rdm.c         ****                 return;
 220:rdm.c         ****             }
 221:rdm.c         ****             break;
 222:rdm.c         **** 
 223:rdm.c         ****         default: {
 224:rdm.c         ****             const structRDMParameter* RDMParameter = RDM_LookupPID(CYSWAP_ENDIAN16(RDMPacket->uiPar
 225:rdm.c         ****             if (RDMParameter != NULL) {
 226:rdm.c         ****                 if (RDMPacket->byCommandClass == E120_GET_COMMAND) {
 227:rdm.c         ****                     if (RDMParameter->getRequestHandler != NULL)
 228:rdm.c         ****                         if (RDMParameter->byGetLength == RDMPacket->byParameterLength) {
 229:rdm.c         ****                             if (!RDMParameter->getRequestHandler(RDMPacket, PacketDest))
 230:rdm.c         ****                                 return;
 231:rdm.c         ****                         } else {
 232:rdm.c         ****                             RDM_RespondNACK(RDMPacket, E120_NR_FORMAT_ERROR);
 233:rdm.c         ****                             return;
 234:rdm.c         ****                         }
 235:rdm.c         ****                     else {
 236:rdm.c         ****                         RDM_RespondNACK(RDMPacket, E120_NR_UNSUPPORTED_COMMAND_CLASS);
 237:rdm.c         ****                         return;
 238:rdm.c         ****                     }
 239:rdm.c         ****                 } else if (RDMPacket->byCommandClass == E120_SET_COMMAND) {
 240:rdm.c         ****                     if (RDMParameter->setRequestHandler != NULL)
 241:rdm.c         ****                         if (RDMParameter->bySetLength == RDMPacket->byParameterLength
 242:rdm.c         ****                             || (RDMParameter->blIsText && RDMPacket->byParameterLength <= RDMParame
 243:rdm.c         ****                             if (!RDMParameter->setRequestHandler(RDMPacket, PacketDest))
 244:rdm.c         ****                                 return;
 245:rdm.c         ****                         } else {
ARM GAS  C:\Users\jimvr\AppData\Local\Temp\cc53b030.s 			page 7


 246:rdm.c         ****                             RDM_RespondNACK(RDMPacket, E120_NR_FORMAT_ERROR);
 247:rdm.c         ****                             return;
 248:rdm.c         ****                         }
 249:rdm.c         ****                     else {
 250:rdm.c         ****                         RDM_RespondNACK(RDMPacket, E120_NR_UNSUPPORTED_COMMAND_CLASS);
 251:rdm.c         ****                         return;
 252:rdm.c         ****                     }
 253:rdm.c         ****                 }
 254:rdm.c         ****             } else {
 255:rdm.c         ****                 if (RDMPacket->byCommandClass != E120_DISCOVERY_COMMAND)
 256:rdm.c         ****                     RDM_RespondNACK(RDMPacket, E120_NR_UNKNOWN_PID);
 257:rdm.c         ****                 return;
 258:rdm.c         ****             }
 259:rdm.c         ****         } break;
 260:rdm.c         ****         }
 261:rdm.c         ****     }
 262:rdm.c         ****     if (PacketDest == DEVICE) {
 263:rdm.c         ****         RDMPacket->byResponseType = E120_RESPONSE_TYPE_ACK;
 264:rdm.c         ****         RDM_RespondMsg(RDMPacket);
 265:rdm.c         ****         if (RDM_pendingDequeue && queue_count()) {
 266:rdm.c         ****             queue_dequeue();
 267:rdm.c         ****         }
 268:rdm.c         ****     }
 269:rdm.c         **** }
 270:rdm.c         **** 
 271:rdm.c         **** void RDM_DiscoveryResponse()
 272:rdm.c         **** {
  98              		.loc 1 272 0
  99              		.cfi_startproc
 100              		@ args = 0, pretend = 0, frame = 24
 101              		@ frame_needed = 0, uses_anonymous_args = 0
 102 0000 30B5     		push	{r4, r5, lr}
 103              		.cfi_def_cfa_offset 12
 104              		.cfi_offset 4, -12
 105              		.cfi_offset 5, -8
 106              		.cfi_offset 14, -4
 107 0002 87B0     		sub	sp, sp, #28
 108              		.cfi_def_cfa_offset 40
 273:rdm.c         ****     structDiscovery RDMDiscovery = {
 109              		.loc 1 273 0
 110 0004 214D     		ldr	r5, .L12
 111 0006 6C46     		mov	r4, sp
 112 0008 2868     		ldr	r0, [r5]	@ unaligned
 113 000a 6968     		ldr	r1, [r5, #4]	@ unaligned
 114 000c AA68     		ldr	r2, [r5, #8]	@ unaligned
 115 000e EB68     		ldr	r3, [r5, #12]	@ unaligned
 116 0010 0FC4     		stmia	r4!, {r0, r1, r2, r3}
 117 0012 2869     		ldr	r0, [r5, #16]	@ unaligned
 118 0014 6969     		ldr	r1, [r5, #20]	@ unaligned
 119 0016 03C4     		stmia	r4!, {r0, r1}
 120              	.LVL7:
 274:rdm.c         ****         .byPreamble = { 0xFE, 0xFE, 0xFE, 0xFE, 0xFE, 0xFE, 0xFE, 0xAA },
 275:rdm.c         ****         .byDeviceID = { 0xAA, 0x55, 0xAA, 0x55, 0xAA, 0x55, 0xAA, 0x55, 0xAA, 0x55, 0xAA, 0x55 },
 276:rdm.c         ****         .byChecksum = { 0xAA, 0x55, 0xAA, 0x55 },
 277:rdm.c         ****     };
 278:rdm.c         **** 
 279:rdm.c         ****     uint16 checksum = 0;
ARM GAS  C:\Users\jimvr\AppData\Local\Temp\cc53b030.s 			page 8


 280:rdm.c         ****     uint8 i, j;
 281:rdm.c         ****     for (i = 0, j = 0; i < 6; i++, j += 2) {
 121              		.loc 1 281 0
 122 0018 0020     		movs	r0, #0
 123 001a 0446     		mov	r4, r0
 279:rdm.c         ****     uint8 i, j;
 124              		.loc 1 279 0
 125 001c 0246     		mov	r2, r0
 126              		.loc 1 281 0
 127 001e 18E0     		b	.L8
 128              	.LVL8:
 129              	.L9:
 282:rdm.c         ****         RDMDiscovery.byDeviceID[j + 0] |= RDM.RDM_DevID[i];
 130              		.loc 1 282 0 discriminator 3
 131 0020 1B4B     		ldr	r3, .L12+4
 132 0022 1B5D     		ldrb	r3, [r3, r4]	@ zero_extendqisi2
 133 0024 06A9     		add	r1, sp, #24
 134 0026 0D18     		adds	r5, r1, r0
 135 0028 15F8101C 		ldrb	r1, [r5, #-16]	@ zero_extendqisi2
 136 002c 1943     		orrs	r1, r1, r3
 137 002e 05F8101C 		strb	r1, [r5, #-16]
 283:rdm.c         ****         checksum += RDMDiscovery.byDeviceID[j + 0];
 138              		.loc 1 283 0 discriminator 3
 139 0032 0A44     		add	r2, r2, r1
 140              	.LVL9:
 141 0034 92B2     		uxth	r2, r2
 142              	.LVL10:
 284:rdm.c         **** 
 285:rdm.c         ****         RDMDiscovery.byDeviceID[j + 1] |= RDM.RDM_DevID[i];
 143              		.loc 1 285 0 discriminator 3
 144 0036 451C     		adds	r5, r0, #1
 145 0038 06A9     		add	r1, sp, #24
 146 003a 0D44     		add	r5, r5, r1
 147 003c 15F8101C 		ldrb	r1, [r5, #-16]	@ zero_extendqisi2
 148 0040 0B43     		orrs	r3, r3, r1
 149 0042 05F8103C 		strb	r3, [r5, #-16]
 286:rdm.c         ****         checksum += RDMDiscovery.byDeviceID[j + 1];
 150              		.loc 1 286 0 discriminator 3
 151 0046 1344     		add	r3, r3, r2
 152 0048 9AB2     		uxth	r2, r3
 153              	.LVL11:
 281:rdm.c         ****         RDMDiscovery.byDeviceID[j + 0] |= RDM.RDM_DevID[i];
 154              		.loc 1 281 0 discriminator 3
 155 004a 0134     		adds	r4, r4, #1
 156              	.LVL12:
 157 004c E4B2     		uxtb	r4, r4
 158              	.LVL13:
 159 004e 0230     		adds	r0, r0, #2
 160              	.LVL14:
 161 0050 C0B2     		uxtb	r0, r0
 162              	.LVL15:
 163              	.L8:
 281:rdm.c         ****         RDMDiscovery.byDeviceID[j + 0] |= RDM.RDM_DevID[i];
 164              		.loc 1 281 0 is_stmt 0 discriminator 1
 165 0052 052C     		cmp	r4, #5
 166 0054 E4D9     		bls	.L9
 287:rdm.c         ****     }
ARM GAS  C:\Users\jimvr\AppData\Local\Temp\cc53b030.s 			page 9


 288:rdm.c         **** 
 289:rdm.c         ****     RDMDiscovery.byChecksum[0] |= HI8(checksum);
 167              		.loc 1 289 0 is_stmt 1
 168 0056 130A     		lsrs	r3, r2, #8
 169 0058 63F05501 		orn	r1, r3, #85
 170 005c 8DF81410 		strb	r1, [sp, #20]
 290:rdm.c         ****     RDMDiscovery.byChecksum[1] |= HI8(checksum);
 171              		.loc 1 290 0
 172 0060 43F05503 		orr	r3, r3, #85
 173 0064 8DF81530 		strb	r3, [sp, #21]
 291:rdm.c         ****     RDMDiscovery.byChecksum[2] |= LO8(checksum);
 174              		.loc 1 291 0
 175 0068 D2B2     		uxtb	r2, r2
 176              	.LVL16:
 177 006a 62F05503 		orn	r3, r2, #85
 178 006e 8DF81630 		strb	r3, [sp, #22]
 292:rdm.c         ****     RDMDiscovery.byChecksum[3] |= LO8(checksum);
 179              		.loc 1 292 0
 180 0072 42F05502 		orr	r2, r2, #85
 181 0076 8DF81720 		strb	r2, [sp, #23]
 293:rdm.c         **** 
 294:rdm.c         ****     if (TRANSMIT_RESPONSE != NULL)
 182              		.loc 1 294 0
 183 007a 064B     		ldr	r3, .L12+8
 184 007c 1B68     		ldr	r3, [r3]
 185 007e 1BB1     		cbz	r3, .L7
 295:rdm.c         ****         TRANSMIT_RESPONSE((uint8*)&RDMDiscovery, sizeof(RDMDiscovery), false);
 186              		.loc 1 295 0
 187 0080 0022     		movs	r2, #0
 188 0082 1821     		movs	r1, #24
 189 0084 6846     		mov	r0, sp
 190              	.LVL17:
 191 0086 9847     		blx	r3
 192              	.LVL18:
 193              	.L7:
 296:rdm.c         **** }
 194              		.loc 1 296 0
 195 0088 07B0     		add	sp, sp, #28
 196              		.cfi_def_cfa_offset 12
 197              		@ sp needed
 198 008a 30BD     		pop	{r4, r5, pc}
 199              	.LVL19:
 200              	.L13:
 201              		.align	2
 202              	.L12:
 203 008c 00000000 		.word	.LANCHOR0
 204 0090 00000000 		.word	RDM
 205 0094 00000000 		.word	TRANSMIT_RESPONSE
 206              		.cfi_endproc
 207              	.LFE3:
 208              		.size	RDM_DiscoveryResponse, .-RDM_DiscoveryResponse
 209              		.section	.text.RDM_RespondMsg,"ax",%progbits
 210              		.align	2
 211              		.global	RDM_RespondMsg
 212              		.thumb
 213              		.thumb_func
 214              		.type	RDM_RespondMsg, %function
ARM GAS  C:\Users\jimvr\AppData\Local\Temp\cc53b030.s 			page 10


 215              	RDM_RespondMsg:
 216              	.LFB4:
 297:rdm.c         **** 
 298:rdm.c         **** void RDM_RespondMsg(structRDMPacket* RDMPacket)
 299:rdm.c         **** {
 217              		.loc 1 299 0
 218              		.cfi_startproc
 219              		@ args = 0, pretend = 0, frame = 0
 220              		@ frame_needed = 0, uses_anonymous_args = 0
 221              	.LVL20:
 222 0000 38B5     		push	{r3, r4, r5, lr}
 223              		.cfi_def_cfa_offset 16
 224              		.cfi_offset 3, -16
 225              		.cfi_offset 4, -12
 226              		.cfi_offset 5, -8
 227              		.cfi_offset 14, -4
 228              	.LVL21:
 300:rdm.c         ****     uint16 checksum = 0;
 301:rdm.c         ****     uint8* pItr = (uint8*)RDMPacket;
 302:rdm.c         ****     uint8 i;
 303:rdm.c         **** 
 304:rdm.c         ****     RDMPacket->byStartCode = E120_SC_RDM;
 229              		.loc 1 304 0
 230 0002 CC23     		movs	r3, #204
 231 0004 0370     		strb	r3, [r0]
 305:rdm.c         ****     RDMPacket->byMessageLength = 24 + RDMPacket->byParameterLength;
 232              		.loc 1 305 0
 233 0006 C57D     		ldrb	r5, [r0, #23]	@ zero_extendqisi2
 234 0008 1835     		adds	r5, r5, #24
 235 000a EDB2     		uxtb	r5, r5
 236 000c 8570     		strb	r5, [r0, #2]
 306:rdm.c         ****     RDMPacket->byCommandClass++;
 237              		.loc 1 306 0
 238 000e 037D     		ldrb	r3, [r0, #20]	@ zero_extendqisi2
 239 0010 0133     		adds	r3, r3, #1
 240 0012 0375     		strb	r3, [r0, #20]
 241              	.LVL22:
 301:rdm.c         ****     uint8 i;
 242              		.loc 1 301 0
 243 0014 0146     		mov	r1, r0
 307:rdm.c         **** 
 308:rdm.c         ****     for (i = 0; i < RDMPacket->byMessageLength; i++)
 244              		.loc 1 308 0
 245 0016 0023     		movs	r3, #0
 300:rdm.c         ****     uint8* pItr = (uint8*)RDMPacket;
 246              		.loc 1 300 0
 247 0018 1A46     		mov	r2, r3
 248              		.loc 1 308 0
 249 001a 05E0     		b	.L15
 250              	.LVL23:
 251              	.L16:
 309:rdm.c         ****         checksum += *pItr++;
 252              		.loc 1 309 0 discriminator 3
 253 001c 0C78     		ldrb	r4, [r1]	@ zero_extendqisi2
 254 001e 2244     		add	r2, r2, r4
 255              	.LVL24:
 256 0020 92B2     		uxth	r2, r2
ARM GAS  C:\Users\jimvr\AppData\Local\Temp\cc53b030.s 			page 11


 257              	.LVL25:
 308:rdm.c         ****         checksum += *pItr++;
 258              		.loc 1 308 0 discriminator 3
 259 0022 0133     		adds	r3, r3, #1
 260              	.LVL26:
 261 0024 DBB2     		uxtb	r3, r3
 262              	.LVL27:
 263              		.loc 1 309 0 discriminator 3
 264 0026 0131     		adds	r1, r1, #1
 265              	.LVL28:
 266              	.L15:
 308:rdm.c         ****         checksum += *pItr++;
 267              		.loc 1 308 0 discriminator 1
 268 0028 AB42     		cmp	r3, r5
 269 002a F7D3     		bcc	.L16
 270              	.LVL29:
 310:rdm.c         **** 
 311:rdm.c         ****     *pItr++ = HI8(checksum);
 271              		.loc 1 311 0
 272 002c 130A     		lsrs	r3, r2, #8
 273              	.LVL30:
 274 002e 0B70     		strb	r3, [r1]
 275              	.LVL31:
 312:rdm.c         ****     *pItr++ = LO8(checksum);
 276              		.loc 1 312 0
 277 0030 4A70     		strb	r2, [r1, #1]
 313:rdm.c         **** 
 314:rdm.c         ****     if (TRANSMIT_RESPONSE != NULL)
 278              		.loc 1 314 0
 279 0032 044B     		ldr	r3, .L19
 280 0034 1B68     		ldr	r3, [r3]
 281 0036 23B1     		cbz	r3, .L14
 315:rdm.c         ****         TRANSMIT_RESPONSE((uint8*)RDMPacket, RDMPacket->byMessageLength + 2, true);
 282              		.loc 1 315 0
 283 0038 8178     		ldrb	r1, [r0, #2]	@ zero_extendqisi2
 284              	.LVL32:
 285 003a 0231     		adds	r1, r1, #2
 286 003c 0122     		movs	r2, #1
 287              	.LVL33:
 288 003e C9B2     		uxtb	r1, r1
 289 0040 9847     		blx	r3
 290              	.LVL34:
 291              	.L14:
 292 0042 38BD     		pop	{r3, r4, r5, pc}
 293              	.L20:
 294              		.align	2
 295              	.L19:
 296 0044 00000000 		.word	TRANSMIT_RESPONSE
 297              		.cfi_endproc
 298              	.LFE4:
 299              		.size	RDM_RespondMsg, .-RDM_RespondMsg
 300              		.section	.text.RDM_RespondNACK,"ax",%progbits
 301              		.align	2
 302              		.global	RDM_RespondNACK
 303              		.thumb
 304              		.thumb_func
 305              		.type	RDM_RespondNACK, %function
ARM GAS  C:\Users\jimvr\AppData\Local\Temp\cc53b030.s 			page 12


 306              	RDM_RespondNACK:
 307              	.LFB5:
 316:rdm.c         **** }
 317:rdm.c         **** 
 318:rdm.c         **** void RDM_RespondNACK(structRDMPacket* RDMPacket, uint16 NACKCode)
 319:rdm.c         **** {
 308              		.loc 1 319 0
 309              		.cfi_startproc
 310              		@ args = 0, pretend = 0, frame = 0
 311              		@ frame_needed = 0, uses_anonymous_args = 0
 312              	.LVL35:
 313 0000 08B5     		push	{r3, lr}
 314              		.cfi_def_cfa_offset 8
 315              		.cfi_offset 3, -8
 316              		.cfi_offset 14, -4
 320:rdm.c         ****     RDMPacket->byParameterData[0] = HI8(NACKCode);
 317              		.loc 1 320 0
 318 0002 0A0A     		lsrs	r2, r1, #8
 319 0004 0276     		strb	r2, [r0, #24]
 321:rdm.c         ****     RDMPacket->byParameterData[1] = LO8(NACKCode);
 320              		.loc 1 321 0
 321 0006 4176     		strb	r1, [r0, #25]
 322:rdm.c         ****     RDMPacket->byParameterLength = 2;
 322              		.loc 1 322 0
 323 0008 0222     		movs	r2, #2
 324 000a C275     		strb	r2, [r0, #23]
 323:rdm.c         ****     RDMPacket->byResponseType = E120_RESPONSE_TYPE_NACK_REASON;
 325              		.loc 1 323 0
 326 000c 0274     		strb	r2, [r0, #16]
 324:rdm.c         ****     RDM_RespondMsg(RDMPacket);
 327              		.loc 1 324 0
 328 000e FFF7FEFF 		bl	RDM_RespondMsg
 329              	.LVL36:
 330 0012 08BD     		pop	{r3, pc}
 331              		.cfi_endproc
 332              	.LFE5:
 333              		.size	RDM_RespondNACK, .-RDM_RespondNACK
 334              		.section	.text.RDM_RespondTimer,"ax",%progbits
 335              		.align	2
 336              		.global	RDM_RespondTimer
 337              		.thumb
 338              		.thumb_func
 339              		.type	RDM_RespondTimer, %function
 340              	RDM_RespondTimer:
 341              	.LFB6:
 325:rdm.c         **** }
 326:rdm.c         **** 
 327:rdm.c         **** void RDM_RespondTimer(structRDMPacket* RDMPacket, uint16 timeAmount)
 328:rdm.c         **** {
 342              		.loc 1 328 0
 343              		.cfi_startproc
 344              		@ args = 0, pretend = 0, frame = 0
 345              		@ frame_needed = 0, uses_anonymous_args = 0
 346              	.LVL37:
 347 0000 08B5     		push	{r3, lr}
 348              		.cfi_def_cfa_offset 8
 349              		.cfi_offset 3, -8
ARM GAS  C:\Users\jimvr\AppData\Local\Temp\cc53b030.s 			page 13


 350              		.cfi_offset 14, -4
 329:rdm.c         ****     RDMPacket->byParameterData[0] = HI8(timeAmount);
 351              		.loc 1 329 0
 352 0002 0A0A     		lsrs	r2, r1, #8
 353 0004 0276     		strb	r2, [r0, #24]
 330:rdm.c         ****     RDMPacket->byParameterData[1] = LO8(timeAmount);
 354              		.loc 1 330 0
 355 0006 4176     		strb	r1, [r0, #25]
 331:rdm.c         ****     RDMPacket->byParameterLength = 2;
 356              		.loc 1 331 0
 357 0008 0222     		movs	r2, #2
 358 000a C275     		strb	r2, [r0, #23]
 332:rdm.c         ****     RDMPacket->byResponseType = E120_RESPONSE_TYPE_ACK_TIMER;
 359              		.loc 1 332 0
 360 000c 0122     		movs	r2, #1
 361 000e 0274     		strb	r2, [r0, #16]
 333:rdm.c         ****     RDM_RespondMsg(RDMPacket);
 362              		.loc 1 333 0
 363 0010 FFF7FEFF 		bl	RDM_RespondMsg
 364              	.LVL38:
 365 0014 08BD     		pop	{r3, pc}
 366              		.cfi_endproc
 367              	.LFE6:
 368              		.size	RDM_RespondTimer, .-RDM_RespondTimer
 369 0016 00BF     		.section	.text.RDM_LookupPID,"ax",%progbits
 370              		.align	2
 371              		.global	RDM_LookupPID
 372              		.thumb
 373              		.thumb_func
 374              		.type	RDM_LookupPID, %function
 375              	RDM_LookupPID:
 376              	.LFB7:
 334:rdm.c         **** }
 335:rdm.c         **** 
 336:rdm.c         **** const structRDMParameter* RDM_LookupPID(uint16 PID)
 337:rdm.c         **** {
 377              		.loc 1 337 0
 378              		.cfi_startproc
 379              		@ args = 0, pretend = 0, frame = 0
 380              		@ frame_needed = 0, uses_anonymous_args = 0
 381              		@ link register save eliminated.
 382              	.LVL39:
 383 0000 10B4     		push	{r4}
 384              		.cfi_def_cfa_offset 4
 385              		.cfi_offset 4, -4
 386              	.LVL40:
 338:rdm.c         ****     uint8 i;
 339:rdm.c         ****     for (i = 0; i < RDMPIDStoreLength; i++)
 387              		.loc 1 339 0
 388 0002 0023     		movs	r3, #0
 389 0004 0CE0     		b	.L26
 390              	.LVL41:
 391              	.L29:
 340:rdm.c         ****         if (RDMPIDStore[i].uiParameterID == PID)
 392              		.loc 1 340 0
 393 0006 03EB4312 		add	r2, r3, r3, lsl #5
 394 000a 0949     		ldr	r1, .L31
ARM GAS  C:\Users\jimvr\AppData\Local\Temp\cc53b030.s 			page 14


 395 000c 8A5A     		ldrh	r2, [r1, r2]	@ unaligned
 396 000e 8242     		cmp	r2, r0
 397 0010 04D1     		bne	.L27
 341:rdm.c         ****             return &RDMPIDStore[i];
 398              		.loc 1 341 0
 399 0012 03EB4314 		add	r4, r3, r3, lsl #5
 400 0016 0846     		mov	r0, r1
 401              	.LVL42:
 402 0018 2044     		add	r0, r0, r4
 403 001a 06E0     		b	.L28
 404              	.LVL43:
 405              	.L27:
 339:rdm.c         ****         if (RDMPIDStore[i].uiParameterID == PID)
 406              		.loc 1 339 0 discriminator 2
 407 001c 0133     		adds	r3, r3, #1
 408              	.LVL44:
 409 001e DBB2     		uxtb	r3, r3
 410              	.LVL45:
 411              	.L26:
 339:rdm.c         ****         if (RDMPIDStore[i].uiParameterID == PID)
 412              		.loc 1 339 0 is_stmt 0 discriminator 1
 413 0020 044A     		ldr	r2, .L31+4
 414 0022 1278     		ldrb	r2, [r2]	@ zero_extendqisi2
 415 0024 9342     		cmp	r3, r2
 416 0026 EED3     		bcc	.L29
 342:rdm.c         ****     return NULL;
 417              		.loc 1 342 0 is_stmt 1
 418 0028 0020     		movs	r0, #0
 419              	.LVL46:
 420              	.L28:
 343:rdm.c         **** }
 421              		.loc 1 343 0
 422 002a 10BC     		pop	{r4}
 423              		.cfi_restore 4
 424              		.cfi_def_cfa_offset 0
 425 002c 7047     		bx	lr
 426              	.L32:
 427 002e 00BF     		.align	2
 428              	.L31:
 429 0030 00000000 		.word	RDMPIDStore
 430 0034 00000000 		.word	RDMPIDStoreLength
 431              		.cfi_endproc
 432              	.LFE7:
 433              		.size	RDM_LookupPID, .-RDM_LookupPID
 434              		.section	.text.RDM_HandleRequest,"ax",%progbits
 435              		.align	2
 436              		.global	RDM_HandleRequest
 437              		.thumb
 438              		.thumb_func
 439              		.type	RDM_HandleRequest, %function
 440              	RDM_HandleRequest:
 441              	.LFB2:
  56:rdm.c         ****     static uint8 discMuteFlag = 0;
 442              		.loc 1 56 0
 443              		.cfi_startproc
 444              		@ args = 0, pretend = 0, frame = 40
 445              		@ frame_needed = 0, uses_anonymous_args = 0
ARM GAS  C:\Users\jimvr\AppData\Local\Temp\cc53b030.s 			page 15


 446              	.LVL47:
 447 0000 F0B5     		push	{r4, r5, r6, r7, lr}
 448              		.cfi_def_cfa_offset 20
 449              		.cfi_offset 4, -20
 450              		.cfi_offset 5, -16
 451              		.cfi_offset 6, -12
 452              		.cfi_offset 7, -8
 453              		.cfi_offset 14, -4
 454 0002 8DB0     		sub	sp, sp, #52
 455              		.cfi_def_cfa_offset 72
 456 0004 0446     		mov	r4, r0
 457 0006 0D46     		mov	r5, r1
 458              	.LVL48:
  60:rdm.c         ****         if (CYSWAP_ENDIAN16(RDMPacket->uiSubDevice) > 1) {
 459              		.loc 1 60 0
 460 0008 A94B     		ldr	r3, .L86
 461 000a 1B78     		ldrb	r3, [r3]	@ zero_extendqisi2
 462 000c 002B     		cmp	r3, #0
 463 000e 40F0BD80 		bne	.L34
  61:rdm.c         ****             RDM_RespondNACK(RDMPacket, E120_NR_SUB_DEVICE_OUT_OF_RANGE);
 464              		.loc 1 61 0
 465 0012 438A     		ldrh	r3, [r0, #18]	@ unaligned
 466 0014 5BBA     		rev16	r3, r3
 467 0016 9BB2     		uxth	r3, r3
 468 0018 012B     		cmp	r3, #1
 469 001a 03D9     		bls	.L35
  62:rdm.c         ****             return;
 470              		.loc 1 62 0
 471 001c 0921     		movs	r1, #9
 472              	.LVL49:
 473 001e FFF7FEFF 		bl	RDM_RespondNACK
 474              	.LVL50:
  63:rdm.c         ****         }
 475              		.loc 1 63 0
 476 0022 D3E1     		b	.L33
 477              	.LVL51:
 478              	.L35:
  65:rdm.c         ****         case E120_DISC_UN_MUTE:
 479              		.loc 1 65 0
 480 0024 B0F81530 		ldrh	r3, [r0, #21]	@ unaligned
 481 0028 5BBA     		rev16	r3, r3
 482 002a 9BB2     		uxth	r3, r3
 483 002c 032B     		cmp	r3, #3
 484 002e 0FD0     		beq	.L38
 485 0030 04D8     		bhi	.L39
 486 0032 012B     		cmp	r3, #1
 487 0034 23D0     		beq	.L40
 488 0036 022B     		cmp	r3, #2
 489 0038 15D0     		beq	.L41
 490 003a AFE0     		b	.L76
 491              	.L39:
 492 003c C02B     		cmp	r3, #192
 493 003e 00F08180 		beq	.L42
 494 0042 B3F5805F 		cmp	r3, #4096
 495 0046 57D0     		beq	.L43
 496 0048 602B     		cmp	r3, #96
 497 004a 40F0A780 		bne	.L76
ARM GAS  C:\Users\jimvr\AppData\Local\Temp\cc53b030.s 			page 16


 498 004e 2FE0     		b	.L44
 499              	.L38:
  67:rdm.c         ****                 discMuteFlag = 0;
 500              		.loc 1 67 0
 501 0050 C37D     		ldrb	r3, [r0, #23]	@ zero_extendqisi2
 502 0052 002B     		cmp	r3, #0
 503 0054 40F0BA81 		bne	.L33
 504              	.LBB2:
  68:rdm.c         ****                 memset(RDMPacket->byParameterData, 0, 2);
 505              		.loc 1 68 0
 506 0058 964A     		ldr	r2, .L86+4
 507 005a 1370     		strb	r3, [r2]
  69:rdm.c         ****                 RDMPacket->byParameterLength = 2;
 508              		.loc 1 69 0
 509 005c 0383     		strh	r3, [r0, #24]	@ unaligned
  70:rdm.c         ****                 respondedFlag = true;
 510              		.loc 1 70 0
 511 005e 0223     		movs	r3, #2
 512 0060 C375     		strb	r3, [r0, #23]
 513              	.LVL52:
  71:rdm.c         ****             } else
 514              		.loc 1 71 0
 515 0062 0123     		movs	r3, #1
 516              	.LBE2:
  74:rdm.c         **** 
 517              		.loc 1 74 0
 518 0064 A1E0     		b	.L37
 519              	.LVL53:
 520              	.L41:
  77:rdm.c         ****                 discMuteFlag = 1;
 521              		.loc 1 77 0
 522 0066 C37D     		ldrb	r3, [r0, #23]	@ zero_extendqisi2
 523 0068 002B     		cmp	r3, #0
 524 006a 40F0AF81 		bne	.L33
 525              	.LBB3:
  78:rdm.c         ****                 memset(RDMPacket->byParameterData, 0, 2);
 526              		.loc 1 78 0
 527 006e 0123     		movs	r3, #1
 528 0070 904A     		ldr	r2, .L86+4
 529 0072 1370     		strb	r3, [r2]
  79:rdm.c         ****                 RDMPacket->byParameterLength = 2;
 530              		.loc 1 79 0
 531 0074 0022     		movs	r2, #0
 532 0076 0283     		strh	r2, [r0, #24]	@ unaligned
  80:rdm.c         ****                 respondedFlag = true;
 533              		.loc 1 80 0
 534 0078 0222     		movs	r2, #2
 535 007a C275     		strb	r2, [r0, #23]
 536              	.LVL54:
 537              	.LBE3:
  84:rdm.c         **** 
 538              		.loc 1 84 0
 539 007c 95E0     		b	.L37
 540              	.LVL55:
 541              	.L40:
  87:rdm.c         ****                 if (memcmp(RDM.RDM_DevID, RDMPacket->byParameterData, UID_LENGTH) >= 0
 542              		.loc 1 87 0
ARM GAS  C:\Users\jimvr\AppData\Local\Temp\cc53b030.s 			page 17


 543 007e 8D4B     		ldr	r3, .L86+4
 544 0080 1B78     		ldrb	r3, [r3]	@ zero_extendqisi2
 545 0082 002B     		cmp	r3, #0
 546 0084 40F08C80 		bne	.L77
 547              	.LBB4:
  88:rdm.c         ****                     && memcmp(RDM.RDM_DevID, &RDMPacket->byParameterData[6], UID_LENGTH) <= 0) {
 548              		.loc 1 88 0
 549 0088 0622     		movs	r2, #6
 550 008a 00F11801 		add	r1, r0, #24
 551              	.LVL56:
 552 008e 8A48     		ldr	r0, .L86+8
 553              	.LVL57:
 554 0090 FFF7FEFF 		bl	memcmp
 555              	.LVL58:
 556 0094 0028     		cmp	r0, #0
 557 0096 C0F28580 		blt	.L78
  89:rdm.c         ****                     RDM_DiscoveryResponse();
 558              		.loc 1 89 0
 559 009a 0622     		movs	r2, #6
 560 009c 04F11E01 		add	r1, r4, #30
 561 00a0 8548     		ldr	r0, .L86+8
 562 00a2 FFF7FEFF 		bl	memcmp
 563              	.LVL59:
 564 00a6 0028     		cmp	r0, #0
 565 00a8 7EDC     		bgt	.L79
  90:rdm.c         ****                     return;
 566              		.loc 1 90 0
 567 00aa FFF7FEFF 		bl	RDM_DiscoveryResponse
 568              	.LVL60:
  91:rdm.c         ****                 }
 569              		.loc 1 91 0
 570 00ae 8DE1     		b	.L33
 571              	.LVL61:
 572              	.L44:
 573              	.LBE4:
  96:rdm.c         ****                 memcpy(RDMPacket->byParameterData, DEVICEINFO, sizeof(structDeviceInfo));
 574              		.loc 1 96 0
 575 00b0 037D     		ldrb	r3, [r0, #20]	@ zero_extendqisi2
 576 00b2 202B     		cmp	r3, #32
 577 00b4 14D1     		bne	.L45
  96:rdm.c         ****                 memcpy(RDMPacket->byParameterData, DEVICEINFO, sizeof(structDeviceInfo));
 578              		.loc 1 96 0 is_stmt 0 discriminator 1
 579 00b6 C27D     		ldrb	r2, [r0, #23]	@ zero_extendqisi2
 580 00b8 92B9     		cbnz	r2, .L45
 581              	.LBB5:
  97:rdm.c         ****                 RDMPacket->byParameterLength = sizeof(structDeviceInfo);
 582              		.loc 1 97 0 is_stmt 1
 583 00ba 804A     		ldr	r2, .L86+12
 584 00bc 1268     		ldr	r2, [r2]
 585 00be 1768     		ldr	r7, [r2]	@ unaligned
 586 00c0 5668     		ldr	r6, [r2, #4]	@ unaligned
 587 00c2 9068     		ldr	r0, [r2, #8]	@ unaligned
 588              	.LVL62:
 589 00c4 D168     		ldr	r1, [r2, #12]	@ unaligned
 590              	.LVL63:
 591 00c6 A761     		str	r7, [r4, #24]	@ unaligned
 592 00c8 E661     		str	r6, [r4, #28]	@ unaligned
ARM GAS  C:\Users\jimvr\AppData\Local\Temp\cc53b030.s 			page 18


 593 00ca 2062     		str	r0, [r4, #32]	@ unaligned
 594 00cc 6162     		str	r1, [r4, #36]	@ unaligned
 595 00ce 118A     		ldrh	r1, [r2, #16]	@ unaligned
 596 00d0 927C     		ldrb	r2, [r2, #18]	@ zero_extendqisi2
 597 00d2 2185     		strh	r1, [r4, #40]	@ unaligned
 598 00d4 84F82A20 		strb	r2, [r4, #42]
  98:rdm.c         ****                 respondedFlag = true;
 599              		.loc 1 98 0
 600 00d8 1323     		movs	r3, #19
 601 00da E375     		strb	r3, [r4, #23]
 602              	.LVL64:
  99:rdm.c         ****             } else if (RDMPacket->byCommandClass == E120_SET_COMMAND) {
 603              		.loc 1 99 0
 604 00dc 0123     		movs	r3, #1
 605              	.LBE5:
 107:rdm.c         **** 
 606              		.loc 1 107 0
 607 00de 64E0     		b	.L37
 608              	.LVL65:
 609              	.L45:
 100:rdm.c         ****                 RDM_RespondNACK(RDMPacket, E120_NR_UNSUPPORTED_COMMAND_CLASS);
 610              		.loc 1 100 0
 611 00e0 302B     		cmp	r3, #48
 612 00e2 04D1     		bne	.L46
 101:rdm.c         ****                 return;
 613              		.loc 1 101 0
 614 00e4 0521     		movs	r1, #5
 615              	.LVL66:
 616 00e6 2046     		mov	r0, r4
 617              	.LVL67:
 618 00e8 FFF7FEFF 		bl	RDM_RespondNACK
 619              	.LVL68:
 102:rdm.c         ****             } else {
 620              		.loc 1 102 0
 621 00ec 6EE1     		b	.L33
 622              	.LVL69:
 623              	.L46:
 104:rdm.c         ****                 return;
 624              		.loc 1 104 0
 625 00ee 0121     		movs	r1, #1
 626              	.LVL70:
 627 00f0 2046     		mov	r0, r4
 628              	.LVL71:
 629 00f2 FFF7FEFF 		bl	RDM_RespondNACK
 630              	.LVL72:
 105:rdm.c         ****             }
 631              		.loc 1 105 0
 632 00f6 69E1     		b	.L33
 633              	.LVL73:
 634              	.L43:
 110:rdm.c         ****                 RDMPacket->byParameterData[0] = RDM_Identify;
 635              		.loc 1 110 0
 636 00f8 037D     		ldrb	r3, [r0, #20]	@ zero_extendqisi2
 637 00fa 202B     		cmp	r3, #32
 638 00fc 07D1     		bne	.L47
 110:rdm.c         ****                 RDMPacket->byParameterData[0] = RDM_Identify;
 639              		.loc 1 110 0 is_stmt 0 discriminator 1
ARM GAS  C:\Users\jimvr\AppData\Local\Temp\cc53b030.s 			page 19


 640 00fe C27D     		ldrb	r2, [r0, #23]	@ zero_extendqisi2
 641 0100 2AB9     		cbnz	r2, .L47
 111:rdm.c         ****                 RDMPacket->byParameterLength = 1;
 642              		.loc 1 111 0 is_stmt 1
 643 0102 6F4B     		ldr	r3, .L86+16
 644 0104 1B78     		ldrb	r3, [r3]	@ zero_extendqisi2
 645 0106 0376     		strb	r3, [r0, #24]
 112:rdm.c         ****                 respondedFlag = true;
 646              		.loc 1 112 0
 647 0108 0123     		movs	r3, #1
 648 010a C375     		strb	r3, [r0, #23]
 649              	.LVL74:
 113:rdm.c         ****             } else if (RDMPacket->byCommandClass == E120_SET_COMMAND && RDMPacket->byParameterLengt
 650              		.loc 1 113 0
 651 010c 4DE0     		b	.L37
 652              	.LVL75:
 653              	.L47:
 114:rdm.c         ****                 if (RDMPacket->byParameterData[0] >= 0 && RDMPacket->byParameterData[0] <= 1) {
 654              		.loc 1 114 0
 655 010e 302B     		cmp	r3, #48
 656 0110 13D1     		bne	.L48
 114:rdm.c         ****                 if (RDMPacket->byParameterData[0] >= 0 && RDMPacket->byParameterData[0] <= 1) {
 657              		.loc 1 114 0 is_stmt 0 discriminator 1
 658 0112 E37D     		ldrb	r3, [r4, #23]	@ zero_extendqisi2
 659 0114 012B     		cmp	r3, #1
 660 0116 10D1     		bne	.L48
 115:rdm.c         ****                     RDM_Identify = RDMPacket->byParameterData[0];
 661              		.loc 1 115 0 is_stmt 1
 662 0118 237E     		ldrb	r3, [r4, #24]	@ zero_extendqisi2
 663 011a 012B     		cmp	r3, #1
 664 011c 08D8     		bhi	.L49
 116:rdm.c         ****                     RDMPacket->byParameterLength = 0;
 665              		.loc 1 116 0
 666 011e 0033     		adds	r3, r3, #0
 667 0120 18BF     		it	ne
 668 0122 0123     		movne	r3, #1
 669 0124 664A     		ldr	r2, .L86+16
 670 0126 1370     		strb	r3, [r2]
 117:rdm.c         ****                     respondedFlag = true;
 671              		.loc 1 117 0
 672 0128 0023     		movs	r3, #0
 673 012a E375     		strb	r3, [r4, #23]
 674              	.LVL76:
 118:rdm.c         ****                 } else {
 675              		.loc 1 118 0
 676 012c 0123     		movs	r3, #1
 115:rdm.c         ****                     RDM_Identify = RDMPacket->byParameterData[0];
 677              		.loc 1 115 0
 678 012e 3CE0     		b	.L37
 679              	.LVL77:
 680              	.L49:
 120:rdm.c         ****                     return;
 681              		.loc 1 120 0
 682 0130 0621     		movs	r1, #6
 683              	.LVL78:
 684 0132 2046     		mov	r0, r4
 685              	.LVL79:
ARM GAS  C:\Users\jimvr\AppData\Local\Temp\cc53b030.s 			page 20


 686 0134 FFF7FEFF 		bl	RDM_RespondNACK
 687              	.LVL80:
 121:rdm.c         ****                 }
 688              		.loc 1 121 0
 689 0138 48E1     		b	.L33
 690              	.LVL81:
 691              	.L48:
 124:rdm.c         ****                 return;
 692              		.loc 1 124 0
 693 013a 0121     		movs	r1, #1
 694              	.LVL82:
 695 013c 2046     		mov	r0, r4
 696              	.LVL83:
 697 013e FFF7FEFF 		bl	RDM_RespondNACK
 698              	.LVL84:
 125:rdm.c         ****             }
 699              		.loc 1 125 0
 700 0142 43E1     		b	.L33
 701              	.LVL85:
 702              	.L42:
 130:rdm.c         ****                 char softLabel[33];
 703              		.loc 1 130 0
 704 0144 037D     		ldrb	r3, [r0, #20]	@ zero_extendqisi2
 705 0146 202B     		cmp	r3, #32
 706 0148 14D1     		bne	.L50
 130:rdm.c         ****                 char softLabel[33];
 707              		.loc 1 130 0 is_stmt 0 discriminator 1
 708 014a C27D     		ldrb	r2, [r0, #23]	@ zero_extendqisi2
 709 014c 92B9     		cbnz	r2, .L50
 710              	.LBB6:
 133:rdm.c         **** 
 711              		.loc 1 133 0 is_stmt 1
 712 014e 4123     		movs	r3, #65
 713 0150 0093     		str	r3, [sp]
 714 0152 0123     		movs	r3, #1
 715 0154 1A46     		mov	r2, r3
 716 0156 5B49     		ldr	r1, .L86+20
 717              	.LVL86:
 718 0158 03A8     		add	r0, sp, #12
 719              	.LVL87:
 720 015a FFF7FEFF 		bl	sprintf
 721              	.LVL88:
 135:rdm.c         ****                 RDMPacket->byParameterLength = strlen(softLabel);
 722              		.loc 1 135 0
 723 015e 03A9     		add	r1, sp, #12
 724 0160 04F11800 		add	r0, r4, #24
 725 0164 FFF7FEFF 		bl	strcpy
 726              	.LVL89:
 136:rdm.c         ****                 respondedFlag = true;
 727              		.loc 1 136 0
 728 0168 03A8     		add	r0, sp, #12
 729 016a FFF7FEFF 		bl	strlen
 730              	.LVL90:
 731 016e E075     		strb	r0, [r4, #23]
 732              	.LVL91:
 137:rdm.c         ****             } else if (RDMPacket->byCommandClass == E120_SET_COMMAND) {
 733              		.loc 1 137 0
ARM GAS  C:\Users\jimvr\AppData\Local\Temp\cc53b030.s 			page 21


 734 0170 0123     		movs	r3, #1
 735              	.LBE6:
 145:rdm.c         ****         }
 736              		.loc 1 145 0
 737 0172 1AE0     		b	.L37
 738              	.LVL92:
 739              	.L50:
 138:rdm.c         ****                 RDM_RespondNACK(RDMPacket, E120_NR_UNSUPPORTED_COMMAND_CLASS);
 740              		.loc 1 138 0
 741 0174 302B     		cmp	r3, #48
 742 0176 04D1     		bne	.L51
 139:rdm.c         ****                 return;
 743              		.loc 1 139 0
 744 0178 0521     		movs	r1, #5
 745              	.LVL93:
 746 017a 2046     		mov	r0, r4
 747              	.LVL94:
 748 017c FFF7FEFF 		bl	RDM_RespondNACK
 749              	.LVL95:
 140:rdm.c         ****             } else {
 750              		.loc 1 140 0
 751 0180 24E1     		b	.L33
 752              	.LVL96:
 753              	.L51:
 142:rdm.c         ****                 return;
 754              		.loc 1 142 0
 755 0182 0121     		movs	r1, #1
 756              	.LVL97:
 757 0184 2046     		mov	r0, r4
 758              	.LVL98:
 759 0186 FFF7FEFF 		bl	RDM_RespondNACK
 760              	.LVL99:
 143:rdm.c         ****             }
 761              		.loc 1 143 0
 762 018a 1FE1     		b	.L33
 763              	.LVL100:
 764              	.L34:
 147:rdm.c         ****         switch (CYSWAP_ENDIAN16(RDMPacket->uiParameterID)) {
 765              		.loc 1 147 0
 766 018c 438A     		ldrh	r3, [r0, #18]	@ unaligned
 767 018e 5BBA     		rev16	r3, r3
 768 0190 9BB2     		uxth	r3, r3
 769 0192 012B     		cmp	r3, #1
 770 0194 40F01A81 		bne	.L33
  58:rdm.c         **** 
 771              		.loc 1 58 0
 772 0198 0023     		movs	r3, #0
 773 019a 06E0     		b	.L37
 774              	.L76:
 775 019c 0023     		movs	r3, #0
 776 019e 04E0     		b	.L37
 777              	.L77:
 778 01a0 0023     		movs	r3, #0
 779 01a2 02E0     		b	.L37
 780              	.LVL101:
 781              	.L78:
 782 01a4 0023     		movs	r3, #0
ARM GAS  C:\Users\jimvr\AppData\Local\Temp\cc53b030.s 			page 22


 783 01a6 00E0     		b	.L37
 784              	.L79:
 785 01a8 0023     		movs	r3, #0
 786              	.LVL102:
 787              	.L37:
 157:rdm.c         ****         switch (CYSWAP_ENDIAN16(RDMPacket->uiParameterID)) {
 788              		.loc 1 157 0
 789 01aa 002B     		cmp	r3, #0
 790 01ac 40F0FF80 		bne	.L52
 158:rdm.c         ****         case E120_SUPPORTED_PARAMETERS:
 791              		.loc 1 158 0
 792 01b0 B4F81500 		ldrh	r0, [r4, #21]	@ unaligned
 793 01b4 40BA     		rev16	r0, r0
 794 01b6 80B2     		uxth	r0, r0
 795 01b8 5028     		cmp	r0, #80
 796 01ba 02D0     		beq	.L54
 797 01bc 5128     		cmp	r0, #81
 798 01be 40D0     		beq	.L80
 799 01c0 B3E0     		b	.L84
 800              	.L54:
 160:rdm.c         ****                 uint8 i, j;
 801              		.loc 1 160 0
 802 01c2 237D     		ldrb	r3, [r4, #20]	@ zero_extendqisi2
 803              	.LVL103:
 804 01c4 202B     		cmp	r3, #32
 805 01c6 21D1     		bne	.L56
 160:rdm.c         ****                 uint8 i, j;
 806              		.loc 1 160 0 is_stmt 0 discriminator 1
 807 01c8 E27D     		ldrb	r2, [r4, #23]	@ zero_extendqisi2
 808 01ca BAB1     		cbz	r2, .L81
 809 01cc 1EE0     		b	.L56
 810              	.LVL104:
 811              	.L60:
 812              	.LBB7:
 163:rdm.c         ****                         RDMPacket->byParameterData[j + 0] = HI8(RDMPIDStore[i].uiParameterID);
 813              		.loc 1 163 0 is_stmt 1
 814 01ce 03EB4311 		add	r1, r3, r3, lsl #5
 815 01d2 3D48     		ldr	r0, .L86+24
 816 01d4 0144     		add	r1, r1, r0
 817 01d6 C97F     		ldrb	r1, [r1, #31]	@ zero_extendqisi2
 818 01d8 49B9     		cbnz	r1, .L58
 164:rdm.c         ****                         RDMPacket->byParameterData[j + 1] = LO8(RDMPIDStore[i].uiParameterID);
 819              		.loc 1 164 0
 820 01da 03EB4311 		add	r1, r3, r3, lsl #5
 821 01de 405A     		ldrh	r0, [r0, r1]	@ unaligned
 822 01e0 060A     		lsrs	r6, r0, #8
 823 01e2 A118     		adds	r1, r4, r2
 824 01e4 0E76     		strb	r6, [r1, #24]
 165:rdm.c         ****                     } else
 825              		.loc 1 165 0
 826 01e6 511C     		adds	r1, r2, #1
 827 01e8 2144     		add	r1, r1, r4
 828 01ea 0876     		strb	r0, [r1, #24]
 829 01ec 01E0     		b	.L59
 830              	.L58:
 167:rdm.c         ****                 }
 831              		.loc 1 167 0
ARM GAS  C:\Users\jimvr\AppData\Local\Temp\cc53b030.s 			page 23


 832 01ee 023A     		subs	r2, r2, #2
 833              	.LVL105:
 834 01f0 D2B2     		uxtb	r2, r2
 835              	.LVL106:
 836              	.L59:
 162:rdm.c         ****                     if (!RDMPIDStore[i].blIsHidden) {
 837              		.loc 1 162 0 discriminator 2
 838 01f2 0133     		adds	r3, r3, #1
 839              	.LVL107:
 840 01f4 DBB2     		uxtb	r3, r3
 841              	.LVL108:
 842 01f6 0232     		adds	r2, r2, #2
 843              	.LVL109:
 844 01f8 D2B2     		uxtb	r2, r2
 845              	.LVL110:
 846 01fa 01E0     		b	.L57
 847              	.LVL111:
 848              	.L81:
 849              	.LBE7:
 850 01fc 0022     		movs	r2, #0
 851 01fe 1346     		mov	r3, r2
 852              	.L57:
 853              	.LVL112:
 854              	.LBB8:
 162:rdm.c         ****                     if (!RDMPIDStore[i].blIsHidden) {
 855              		.loc 1 162 0 is_stmt 0 discriminator 1
 856 0200 3249     		ldr	r1, .L86+28
 857 0202 0978     		ldrb	r1, [r1]	@ zero_extendqisi2
 858 0204 8B42     		cmp	r3, r1
 859 0206 E2D3     		bcc	.L60
 169:rdm.c         ****             } else if (RDMPacket->byCommandClass == E120_SET_COMMAND) {
 860              		.loc 1 169 0 is_stmt 1
 861 0208 E275     		strb	r2, [r4, #23]
 862              	.LBE8:
 177:rdm.c         **** 
 863              		.loc 1 177 0
 864 020a D0E0     		b	.L52
 865              	.LVL113:
 866              	.L56:
 170:rdm.c         ****                 RDM_RespondNACK(RDMPacket, E120_NR_UNSUPPORTED_COMMAND_CLASS);
 867              		.loc 1 170 0
 868 020c 302B     		cmp	r3, #48
 869 020e 04D1     		bne	.L61
 171:rdm.c         ****                 return;
 870              		.loc 1 171 0
 871 0210 0521     		movs	r1, #5
 872 0212 2046     		mov	r0, r4
 873 0214 FFF7FEFF 		bl	RDM_RespondNACK
 874              	.LVL114:
 172:rdm.c         ****             } else {
 875              		.loc 1 172 0
 876 0218 D8E0     		b	.L33
 877              	.L61:
 174:rdm.c         ****                 return;
 878              		.loc 1 174 0
 879 021a 0121     		movs	r1, #1
 880 021c 2046     		mov	r0, r4
ARM GAS  C:\Users\jimvr\AppData\Local\Temp\cc53b030.s 			page 24


 881 021e FFF7FEFF 		bl	RDM_RespondNACK
 882              	.LVL115:
 175:rdm.c         ****             }
 883              		.loc 1 175 0
 884 0222 D3E0     		b	.L33
 885              	.LVL116:
 886              	.L63:
 887              	.LBB9:
 184:rdm.c         ****                     hasCustomPID = true;
 888              		.loc 1 184 0
 889 0224 03EB4312 		add	r2, r3, r3, lsl #5
 890 0228 2749     		ldr	r1, .L86+24
 891 022a 8A5E     		ldrsh	r2, [r1, r2]	@ unaligned
 892 022c 002A     		cmp	r2, #0
 893 022e 05DA     		bge	.L62
 184:rdm.c         ****                     hasCustomPID = true;
 894              		.loc 1 184 0 is_stmt 0 discriminator 1
 895 0230 03EB4312 		add	r2, r3, r3, lsl #5
 896 0234 0A44     		add	r2, r2, r1
 897 0236 D27F     		ldrb	r2, [r2, #31]	@ zero_extendqisi2
 898 0238 02B9     		cbnz	r2, .L62
 185:rdm.c         **** 
 899              		.loc 1 185 0 is_stmt 1
 900 023a 0120     		movs	r0, #1
 901              	.LVL117:
 902              	.L62:
 183:rdm.c         ****                 if (RDMPIDStore[i].uiParameterID >= 0x8000 && !RDMPIDStore[i].blIsHidden)
 903              		.loc 1 183 0 discriminator 2
 904 023c 0133     		adds	r3, r3, #1
 905              	.LVL118:
 906 023e DBB2     		uxtb	r3, r3
 907              	.LVL119:
 908 0240 01E0     		b	.L55
 909              	.LVL120:
 910              	.L80:
 911              	.LBE9:
 158:rdm.c         ****         case E120_SUPPORTED_PARAMETERS:
 912              		.loc 1 158 0
 913 0242 0020     		movs	r0, #0
 914 0244 0346     		mov	r3, r0
 915              	.LVL121:
 916              	.L55:
 917              	.LBB10:
 183:rdm.c         ****                 if (RDMPIDStore[i].uiParameterID >= 0x8000 && !RDMPIDStore[i].blIsHidden)
 918              		.loc 1 183 0 discriminator 1
 919 0246 214A     		ldr	r2, .L86+28
 920 0248 1278     		ldrb	r2, [r2]	@ zero_extendqisi2
 921 024a 9342     		cmp	r3, r2
 922 024c EAD3     		bcc	.L63
 187:rdm.c         ****                 RDM_RespondNACK(RDMPacket, E120_NR_UNKNOWN_PID);
 923              		.loc 1 187 0
 924 024e 20B9     		cbnz	r0, .L64
 188:rdm.c         ****                 return;
 925              		.loc 1 188 0
 926 0250 0021     		movs	r1, #0
 927 0252 2046     		mov	r0, r4
 928              	.LVL122:
ARM GAS  C:\Users\jimvr\AppData\Local\Temp\cc53b030.s 			page 25


 929 0254 FFF7FEFF 		bl	RDM_RespondNACK
 930              	.LVL123:
 189:rdm.c         ****             }
 931              		.loc 1 189 0
 932 0258 B8E0     		b	.L33
 933              	.LVL124:
 934              	.L64:
 935              	.LBE10:
 192:rdm.c         ****                 const uint16 PID = UINT8_TO_UINT16(RDMPacket->byParameterData[0], RDMPacket->byPara
 936              		.loc 1 192 0
 937 025a 237D     		ldrb	r3, [r4, #20]	@ zero_extendqisi2
 938              	.LVL125:
 939 025c 202B     		cmp	r3, #32
 940 025e 58D1     		bne	.L65
 192:rdm.c         ****                 const uint16 PID = UINT8_TO_UINT16(RDMPacket->byParameterData[0], RDMPacket->byPara
 941              		.loc 1 192 0 is_stmt 0 discriminator 1
 942 0260 E27D     		ldrb	r2, [r4, #23]	@ zero_extendqisi2
 943 0262 022A     		cmp	r2, #2
 944 0264 55D1     		bne	.L65
 945              	.LBB11:
 193:rdm.c         ****                 const structRDMParameter* RDMParameter = RDM_LookupPID(PID);
 946              		.loc 1 193 0 is_stmt 1
 947 0266 277E     		ldrb	r7, [r4, #24]	@ zero_extendqisi2
 948 0268 637E     		ldrb	r3, [r4, #25]	@ zero_extendqisi2
 949 026a 43EA0727 		orr	r7, r3, r7, lsl #8
 950 026e 3FB2     		sxth	r7, r7
 951              	.LVL126:
 194:rdm.c         **** 
 952              		.loc 1 194 0
 953 0270 B8B2     		uxth	r0, r7
 954              	.LVL127:
 955 0272 FFF7FEFF 		bl	RDM_LookupPID
 956              	.LVL128:
 196:rdm.c         ****                     uint8 descLen = strlen(RDMParameter->strDesc);
 957              		.loc 1 196 0
 958 0276 0646     		mov	r6, r0
 959 0278 0028     		cmp	r0, #0
 960 027a 45D0     		beq	.L66
 196:rdm.c         ****                     uint8 descLen = strlen(RDMParameter->strDesc);
 961              		.loc 1 196 0 is_stmt 0 discriminator 1
 962 027c 002F     		cmp	r7, #0
 963 027e 43DA     		bge	.L66
 964              	.LBB12:
 197:rdm.c         ****                     RDMPacket->byParameterData[2] = (RDMParameter->byGetLength > RDMParameter->bySe
 965              		.loc 1 197 0 is_stmt 1
 966 0280 D0F80200 		ldr	r0, [r0, #2]	@ unaligned
 967              	.LVL129:
 968 0284 FFF7FEFF 		bl	strlen
 969              	.LVL130:
 970 0288 C7B2     		uxtb	r7, r0
 971              	.LVL131:
 198:rdm.c         ****                     RDMPacket->byParameterData[3] = RDMParameter->byDataType;
 972              		.loc 1 198 0
 973 028a B27D     		ldrb	r2, [r6, #22]	@ zero_extendqisi2
 974 028c 737D     		ldrb	r3, [r6, #21]	@ zero_extendqisi2
 975 028e 9342     		cmp	r3, r2
 976 0290 38BF     		it	cc
ARM GAS  C:\Users\jimvr\AppData\Local\Temp\cc53b030.s 			page 26


 977 0292 1346     		movcc	r3, r2
 978 0294 A376     		strb	r3, [r4, #26]
 199:rdm.c         ****                     RDMPacket->byParameterData[4] = (RDMParameter->getRequestHandler ? E120_CC_GET 
 979              		.loc 1 199 0
 980 0296 B37C     		ldrb	r3, [r6, #18]	@ zero_extendqisi2
 981 0298 E376     		strb	r3, [r4, #27]
 200:rdm.c         ****                         | (RDMParameter->setRequestHandler ? E120_CC_SET : 0);
 982              		.loc 1 200 0
 983 029a D6F81730 		ldr	r3, [r6, #23]	@ unaligned
 984 029e 0033     		adds	r3, r3, #0
 985 02a0 18BF     		it	ne
 986 02a2 0123     		movne	r3, #1
 201:rdm.c         ****                     RDMPacket->byParameterData[5] = 0;
 987              		.loc 1 201 0
 988 02a4 D6F81B20 		ldr	r2, [r6, #27]	@ unaligned
 200:rdm.c         ****                         | (RDMParameter->setRequestHandler ? E120_CC_SET : 0);
 989              		.loc 1 200 0
 990 02a8 92B1     		cbz	r2, .L83
 991 02aa 0222     		movs	r2, #2
 992 02ac 11E0     		b	.L67
 993              	.L87:
 994 02ae 00BF     		.align	2
 995              	.L86:
 996 02b0 00000000 		.word	isSubDevice
 997 02b4 00000000 		.word	.LANCHOR1
 998 02b8 00000000 		.word	RDM
 999 02bc 00000000 		.word	DEVICEINFO
 1000 02c0 00000000 		.word	RDM_Identify
 1001 02c4 00000000 		.word	.LC1
 1002 02c8 00000000 		.word	RDMPIDStore
 1003 02cc 00000000 		.word	RDMPIDStoreLength
 1004              	.L83:
 1005 02d0 0022     		movs	r2, #0
 1006              	.L67:
 200:rdm.c         ****                         | (RDMParameter->setRequestHandler ? E120_CC_SET : 0);
 1007              		.loc 1 200 0 is_stmt 0 discriminator 4
 1008 02d2 1343     		orrs	r3, r3, r2
 1009 02d4 2377     		strb	r3, [r4, #28]
 202:rdm.c         ****                     RDMPacket->byParameterData[6] = RDMParameter->byUnits;
 1010              		.loc 1 202 0 is_stmt 1 discriminator 4
 1011 02d6 0023     		movs	r3, #0
 1012 02d8 6377     		strb	r3, [r4, #29]
 203:rdm.c         ****                     RDMPacket->byParameterData[7] = RDMParameter->byPrefix;
 1013              		.loc 1 203 0 discriminator 4
 1014 02da F37C     		ldrb	r3, [r6, #19]	@ zero_extendqisi2
 1015 02dc A377     		strb	r3, [r4, #30]
 204:rdm.c         ****                     memcpy(&RDMPacket->byParameterData[8], &RDMParameter->ulMinValue, sizeof(uint32
 1016              		.loc 1 204 0 discriminator 4
 1017 02de 337D     		ldrb	r3, [r6, #20]	@ zero_extendqisi2
 1018 02e0 E377     		strb	r3, [r4, #31]
 205:rdm.c         ****                     memcpy(&RDMPacket->byParameterData[12], &RDMParameter->ulMaxValue, sizeof(uint3
 1019              		.loc 1 205 0 discriminator 4
 1020 02e2 D6F80630 		ldr	r3, [r6, #6]	@ unaligned
 1021 02e6 2362     		str	r3, [r4, #32]	@ unaligned
 206:rdm.c         ****                     memcpy(&RDMPacket->byParameterData[16], &RDMParameter->ulDefValue, sizeof(uint3
 1022              		.loc 1 206 0 discriminator 4
 1023 02e8 D6F80A30 		ldr	r3, [r6, #10]	@ unaligned
ARM GAS  C:\Users\jimvr\AppData\Local\Temp\cc53b030.s 			page 27


 1024 02ec 6362     		str	r3, [r4, #36]	@ unaligned
 207:rdm.c         ****                     memcpy(&RDMPacket->byParameterData[20], RDMParameter->strDesc, descLen);
 1025              		.loc 1 207 0 discriminator 4
 1026 02ee D6F80E30 		ldr	r3, [r6, #14]	@ unaligned
 1027 02f2 A362     		str	r3, [r4, #40]	@ unaligned
 208:rdm.c         ****                     RDMPacket->byParameterLength = 20 + descLen;
 1028              		.loc 1 208 0 discriminator 4
 1029 02f4 C2B2     		uxtb	r2, r0
 1030 02f6 D6F80210 		ldr	r1, [r6, #2]	@ unaligned
 1031 02fa 04F12C00 		add	r0, r4, #44
 1032 02fe FFF7FEFF 		bl	memcpy
 1033              	.LVL132:
 209:rdm.c         ****                 } else {
 1034              		.loc 1 209 0 discriminator 4
 1035 0302 1437     		adds	r7, r7, #20
 1036              	.LVL133:
 1037 0304 E775     		strb	r7, [r4, #23]
 1038              	.LBE12:
 1039              	.LBE11:
 192:rdm.c         ****                 const uint16 PID = UINT8_TO_UINT16(RDMPacket->byParameterData[0], RDMPacket->byPara
 1040              		.loc 1 192 0 discriminator 4
 1041 0306 52E0     		b	.L52
 1042              	.LVL134:
 1043              	.L66:
 1044              	.LBB13:
 211:rdm.c         ****                     return;
 1045              		.loc 1 211 0
 1046 0308 0621     		movs	r1, #6
 1047 030a 2046     		mov	r0, r4
 1048              	.LVL135:
 1049 030c FFF7FEFF 		bl	RDM_RespondNACK
 1050              	.LVL136:
 212:rdm.c         ****                 }
 1051              		.loc 1 212 0
 1052 0310 5CE0     		b	.L33
 1053              	.LVL137:
 1054              	.L65:
 1055              	.LBE13:
 214:rdm.c         ****                 RDM_RespondNACK(RDMPacket, E120_NR_UNSUPPORTED_COMMAND_CLASS);
 1056              		.loc 1 214 0
 1057 0312 302B     		cmp	r3, #48
 1058 0314 04D1     		bne	.L68
 215:rdm.c         ****                 return;
 1059              		.loc 1 215 0
 1060 0316 0521     		movs	r1, #5
 1061 0318 2046     		mov	r0, r4
 1062              	.LVL138:
 1063 031a FFF7FEFF 		bl	RDM_RespondNACK
 1064              	.LVL139:
 216:rdm.c         ****             } else {
 1065              		.loc 1 216 0
 1066 031e 55E0     		b	.L33
 1067              	.LVL140:
 1068              	.L68:
 218:rdm.c         ****                 return;
 1069              		.loc 1 218 0
 1070 0320 0121     		movs	r1, #1
ARM GAS  C:\Users\jimvr\AppData\Local\Temp\cc53b030.s 			page 28


 1071 0322 2046     		mov	r0, r4
 1072              	.LVL141:
 1073 0324 FFF7FEFF 		bl	RDM_RespondNACK
 1074              	.LVL142:
 219:rdm.c         ****             }
 1075              		.loc 1 219 0
 1076 0328 50E0     		b	.L33
 1077              	.LVL143:
 1078              	.L84:
 1079              	.LBB14:
 224:rdm.c         ****             if (RDMParameter != NULL) {
 1080              		.loc 1 224 0
 1081 032a FFF7FEFF 		bl	RDM_LookupPID
 1082              	.LVL144:
 225:rdm.c         ****                 if (RDMPacket->byCommandClass == E120_GET_COMMAND) {
 1083              		.loc 1 225 0
 1084 032e 0246     		mov	r2, r0
 1085 0330 A8B3     		cbz	r0, .L69
 226:rdm.c         ****                     if (RDMParameter->getRequestHandler != NULL)
 1086              		.loc 1 226 0
 1087 0332 237D     		ldrb	r3, [r4, #20]	@ zero_extendqisi2
 1088 0334 202B     		cmp	r3, #32
 1089 0336 15D1     		bne	.L70
 227:rdm.c         ****                         if (RDMParameter->byGetLength == RDMPacket->byParameterLength) {
 1090              		.loc 1 227 0
 1091 0338 D0F81730 		ldr	r3, [r0, #23]	@ unaligned
 1092 033c 6BB1     		cbz	r3, .L71
 228:rdm.c         ****                             if (!RDMParameter->getRequestHandler(RDMPacket, PacketDest))
 1093              		.loc 1 228 0
 1094 033e 417D     		ldrb	r1, [r0, #21]	@ zero_extendqisi2
 1095 0340 E27D     		ldrb	r2, [r4, #23]	@ zero_extendqisi2
 1096 0342 9142     		cmp	r1, r2
 1097 0344 04D1     		bne	.L72
 229:rdm.c         ****                                 return;
 1098              		.loc 1 229 0
 1099 0346 2946     		mov	r1, r5
 1100 0348 2046     		mov	r0, r4
 1101              	.LVL145:
 1102 034a 9847     		blx	r3
 1103              	.LVL146:
 1104 034c 78BB     		cbnz	r0, .L52
 1105 034e 3DE0     		b	.L33
 1106              	.LVL147:
 1107              	.L72:
 232:rdm.c         ****                             return;
 1108              		.loc 1 232 0
 1109 0350 0121     		movs	r1, #1
 1110 0352 2046     		mov	r0, r4
 1111              	.LVL148:
 1112 0354 FFF7FEFF 		bl	RDM_RespondNACK
 1113              	.LVL149:
 233:rdm.c         ****                         }
 1114              		.loc 1 233 0
 1115 0358 38E0     		b	.L33
 1116              	.LVL150:
 1117              	.L71:
 236:rdm.c         ****                         return;
ARM GAS  C:\Users\jimvr\AppData\Local\Temp\cc53b030.s 			page 29


 1118              		.loc 1 236 0
 1119 035a 0521     		movs	r1, #5
 1120 035c 2046     		mov	r0, r4
 1121              	.LVL151:
 1122 035e FFF7FEFF 		bl	RDM_RespondNACK
 1123              	.LVL152:
 237:rdm.c         ****                     }
 1124              		.loc 1 237 0
 1125 0362 33E0     		b	.L33
 1126              	.LVL153:
 1127              	.L70:
 239:rdm.c         ****                     if (RDMParameter->setRequestHandler != NULL)
 1128              		.loc 1 239 0
 1129 0364 302B     		cmp	r3, #48
 1130 0366 22D1     		bne	.L52
 240:rdm.c         ****                         if (RDMParameter->bySetLength == RDMPacket->byParameterLength
 1131              		.loc 1 240 0
 1132 0368 D0F81B30 		ldr	r3, [r0, #27]	@ unaligned
 1133 036c 93B1     		cbz	r3, .L73
 241:rdm.c         ****                             || (RDMParameter->blIsText && RDMPacket->byParameterLength <= RDMParame
 1134              		.loc 1 241 0
 1135 036e 807D     		ldrb	r0, [r0, #22]	@ zero_extendqisi2
 1136              	.LVL154:
 1137 0370 E17D     		ldrb	r1, [r4, #23]	@ zero_extendqisi2
 1138 0372 8842     		cmp	r0, r1
 1139 0374 04D0     		beq	.L74
 242:rdm.c         ****                             if (!RDMParameter->setRequestHandler(RDMPacket, PacketDest))
 1140              		.loc 1 242 0
 1141 0376 92F82020 		ldrb	r2, [r2, #32]	@ zero_extendqisi2
 1142              	.LVL155:
 1143 037a 32B1     		cbz	r2, .L75
 242:rdm.c         ****                             if (!RDMParameter->setRequestHandler(RDMPacket, PacketDest))
 1144              		.loc 1 242 0 is_stmt 0 discriminator 1
 1145 037c 8842     		cmp	r0, r1
 1146 037e 04D3     		bcc	.L75
 1147              	.L74:
 243:rdm.c         ****                                 return;
 1148              		.loc 1 243 0 is_stmt 1
 1149 0380 2946     		mov	r1, r5
 1150 0382 2046     		mov	r0, r4
 1151 0384 9847     		blx	r3
 1152              	.LVL156:
 1153 0386 90B9     		cbnz	r0, .L52
 1154 0388 20E0     		b	.L33
 1155              	.L75:
 246:rdm.c         ****                             return;
 1156              		.loc 1 246 0
 1157 038a 0121     		movs	r1, #1
 1158 038c 2046     		mov	r0, r4
 1159 038e FFF7FEFF 		bl	RDM_RespondNACK
 1160              	.LVL157:
 247:rdm.c         ****                         }
 1161              		.loc 1 247 0
 1162 0392 1BE0     		b	.L33
 1163              	.LVL158:
 1164              	.L73:
 250:rdm.c         ****                         return;
ARM GAS  C:\Users\jimvr\AppData\Local\Temp\cc53b030.s 			page 30


 1165              		.loc 1 250 0
 1166 0394 0521     		movs	r1, #5
 1167 0396 2046     		mov	r0, r4
 1168              	.LVL159:
 1169 0398 FFF7FEFF 		bl	RDM_RespondNACK
 1170              	.LVL160:
 251:rdm.c         ****                     }
 1171              		.loc 1 251 0
 1172 039c 16E0     		b	.L33
 1173              	.LVL161:
 1174              	.L69:
 255:rdm.c         ****                     RDM_RespondNACK(RDMPacket, E120_NR_UNKNOWN_PID);
 1175              		.loc 1 255 0
 1176 039e 237D     		ldrb	r3, [r4, #20]	@ zero_extendqisi2
 1177 03a0 102B     		cmp	r3, #16
 1178 03a2 13D0     		beq	.L33
 256:rdm.c         ****                 return;
 1179              		.loc 1 256 0
 1180 03a4 0021     		movs	r1, #0
 1181 03a6 2046     		mov	r0, r4
 1182              	.LVL162:
 1183 03a8 FFF7FEFF 		bl	RDM_RespondNACK
 1184              	.LVL163:
 1185 03ac 0EE0     		b	.L33
 1186              	.L52:
 1187              	.LBE14:
 262:rdm.c         ****         RDMPacket->byResponseType = E120_RESPONSE_TYPE_ACK;
 1188              		.loc 1 262 0
 1189 03ae 012D     		cmp	r5, #1
 1190 03b0 0CD1     		bne	.L33
 263:rdm.c         ****         RDM_RespondMsg(RDMPacket);
 1191              		.loc 1 263 0
 1192 03b2 0023     		movs	r3, #0
 1193 03b4 2374     		strb	r3, [r4, #16]
 264:rdm.c         ****         if (RDM_pendingDequeue && queue_count()) {
 1194              		.loc 1 264 0
 1195 03b6 2046     		mov	r0, r4
 1196 03b8 FFF7FEFF 		bl	RDM_RespondMsg
 1197              	.LVL164:
 265:rdm.c         ****             queue_dequeue();
 1198              		.loc 1 265 0
 1199 03bc 044B     		ldr	r3, .L88
 1200 03be 1B78     		ldrb	r3, [r3]	@ zero_extendqisi2
 1201 03c0 23B1     		cbz	r3, .L33
 265:rdm.c         ****             queue_dequeue();
 1202              		.loc 1 265 0 is_stmt 0 discriminator 1
 1203 03c2 FFF7FEFF 		bl	queue_count
 1204              	.LVL165:
 1205 03c6 08B1     		cbz	r0, .L33
 266:rdm.c         ****         }
 1206              		.loc 1 266 0 is_stmt 1
 1207 03c8 FFF7FEFF 		bl	queue_dequeue
 1208              	.LVL166:
 1209              	.L33:
 269:rdm.c         **** 
 1210              		.loc 1 269 0
 1211 03cc 0DB0     		add	sp, sp, #52
ARM GAS  C:\Users\jimvr\AppData\Local\Temp\cc53b030.s 			page 31


 1212              		.cfi_def_cfa_offset 20
 1213              		@ sp needed
 1214 03ce F0BD     		pop	{r4, r5, r6, r7, pc}
 1215              	.LVL167:
 1216              	.L89:
 1217              		.align	2
 1218              	.L88:
 1219 03d0 00000000 		.word	RDM_pendingDequeue
 1220              		.cfi_endproc
 1221              	.LFE2:
 1222              		.size	RDM_HandleRequest, .-RDM_HandleRequest
 1223              		.section	.text.RDM_ResetState,"ax",%progbits
 1224              		.align	2
 1225              		.global	RDM_ResetState
 1226              		.thumb
 1227              		.thumb_func
 1228              		.type	RDM_ResetState, %function
 1229              	RDM_ResetState:
 1230              	.LFB8:
 344:rdm.c         **** 
 345:rdm.c         **** void RDM_ResetState()
 346:rdm.c         **** {
 1231              		.loc 1 346 0
 1232              		.cfi_startproc
 1233              		@ args = 0, pretend = 0, frame = 0
 1234              		@ frame_needed = 0, uses_anonymous_args = 0
 1235 0000 08B5     		push	{r3, lr}
 1236              		.cfi_def_cfa_offset 8
 1237              		.cfi_offset 3, -8
 1238              		.cfi_offset 14, -4
 347:rdm.c         ****     state = SUB_START_CODE;
 1239              		.loc 1 347 0
 1240 0002 0123     		movs	r3, #1
 1241 0004 094A     		ldr	r2, .L92
 1242 0006 1370     		strb	r3, [r2]
 348:rdm.c         ****     paramCount = 0;
 1243              		.loc 1 348 0
 1244 0008 0021     		movs	r1, #0
 1245 000a 094A     		ldr	r2, .L92+4
 1246 000c 1170     		strb	r1, [r2]
 349:rdm.c         ****     calculatedChecksum = 0;
 1247              		.loc 1 349 0
 1248 000e 094A     		ldr	r2, .L92+8
 1249 0010 1180     		strh	r1, [r2]	@ movhi
 350:rdm.c         ****     receivedChecksum = 0;
 1250              		.loc 1 350 0
 1251 0012 094A     		ldr	r2, .L92+12
 1252 0014 1180     		strh	r1, [r2]	@ movhi
 351:rdm.c         ****     isDevice = true;
 1253              		.loc 1 351 0
 1254 0016 094A     		ldr	r2, .L92+16
 1255 0018 1370     		strb	r3, [r2]
 352:rdm.c         ****     isBroadcast = true;
 1256              		.loc 1 352 0
 1257 001a 094A     		ldr	r2, .L92+20
 1258 001c 1370     		strb	r3, [r2]
 353:rdm.c         ****     isVendorcast = true;
ARM GAS  C:\Users\jimvr\AppData\Local\Temp\cc53b030.s 			page 32


 1259              		.loc 1 353 0
 1260 001e 094A     		ldr	r2, .L92+24
 1261 0020 1370     		strb	r3, [r2]
 354:rdm.c         ****     memset(&RDMResPacket, 0, sizeof(structRDMPacket));
 1262              		.loc 1 354 0
 1263 0022 FF22     		movs	r2, #255
 1264 0024 0848     		ldr	r0, .L92+28
 1265 0026 FFF7FEFF 		bl	memset
 1266              	.LVL168:
 1267 002a 08BD     		pop	{r3, pc}
 1268              	.L93:
 1269              		.align	2
 1270              	.L92:
 1271 002c 00000000 		.word	state
 1272 0030 00000000 		.word	paramCount
 1273 0034 00000000 		.word	calculatedChecksum
 1274 0038 00000000 		.word	receivedChecksum
 1275 003c 00000000 		.word	isDevice
 1276 0040 00000000 		.word	isBroadcast
 1277 0044 00000000 		.word	isVendorcast
 1278 0048 00000000 		.word	RDMResPacket
 1279              		.cfi_endproc
 1280              	.LFE8:
 1281              		.size	RDM_ResetState, .-RDM_ResetState
 1282              		.section	.text.RDM_AcceptByte,"ax",%progbits
 1283              		.align	2
 1284              		.global	RDM_AcceptByte
 1285              		.thumb
 1286              		.thumb_func
 1287              		.type	RDM_AcceptByte, %function
 1288              	RDM_AcceptByte:
 1289              	.LFB9:
 355:rdm.c         **** }
 356:rdm.c         **** 
 357:rdm.c         **** void RDM_AcceptByte(uint8 dataByte)
 358:rdm.c         **** {
 1290              		.loc 1 358 0
 1291              		.cfi_startproc
 1292              		@ args = 0, pretend = 0, frame = 0
 1293              		@ frame_needed = 0, uses_anonymous_args = 0
 1294              	.LVL169:
 1295 0000 10B5     		push	{r4, lr}
 1296              		.cfi_def_cfa_offset 8
 1297              		.cfi_offset 4, -8
 1298              		.cfi_offset 14, -4
 359:rdm.c         ****     if (state >= SUB_START_CODE && state < CHECKSUM)
 1299              		.loc 1 359 0
 1300 0002 904B     		ldr	r3, .L136
 1301 0004 1B78     		ldrb	r3, [r3]	@ zero_extendqisi2
 1302 0006 5A1E     		subs	r2, r3, #1
 1303 0008 D2B2     		uxtb	r2, r2
 1304 000a 0B2A     		cmp	r2, #11
 1305 000c 03D8     		bhi	.L95
 360:rdm.c         ****         calculatedChecksum += dataByte;
 1306              		.loc 1 360 0
 1307 000e 8E49     		ldr	r1, .L136+4
 1308 0010 0A88     		ldrh	r2, [r1]
ARM GAS  C:\Users\jimvr\AppData\Local\Temp\cc53b030.s 			page 33


 1309 0012 0244     		add	r2, r2, r0
 1310 0014 0A80     		strh	r2, [r1]	@ movhi
 1311              	.L95:
 361:rdm.c         ****     switch (state) {
 1312              		.loc 1 361 0
 1313 0016 013B     		subs	r3, r3, #1
 1314 0018 0C2B     		cmp	r3, #12
 1315 001a 00F21281 		bhi	.L94
 1316 001e DFE813F0 		tbh	[pc, r3, lsl #1]
 1317              	.L98:
 1318 0022 0D00     		.2byte	(.L97-.L98)/2
 1319 0024 1700     		.2byte	(.L99-.L98)/2
 1320 0026 2300     		.2byte	(.L100-.L98)/2
 1321 0028 5D00     		.2byte	(.L101-.L98)/2
 1322 002a 6F00     		.2byte	(.L102-.L98)/2
 1323 002c 7500     		.2byte	(.L103-.L98)/2
 1324 002e 7B00     		.2byte	(.L104-.L98)/2
 1325 0030 8600     		.2byte	(.L105-.L98)/2
 1326 0032 9C00     		.2byte	(.L106-.L98)/2
 1327 0034 A200     		.2byte	(.L107-.L98)/2
 1328 0036 BD00     		.2byte	(.L108-.L98)/2
 1329 0038 D100     		.2byte	(.L109-.L98)/2
 1330 003a E300     		.2byte	(.L110-.L98)/2
 1331              		.p2align 1
 1332              	.L97:
 362:rdm.c         ****     case IDLE: {
 363:rdm.c         ****     } break;
 364:rdm.c         **** 
 365:rdm.c         ****     case SUB_START_CODE: {
 366:rdm.c         ****         if (dataByte == E120_SC_SUB_MESSAGE) {
 1333              		.loc 1 366 0
 1334 003c 0128     		cmp	r0, #1
 1335 003e 40F00081 		bne	.L94
 367:rdm.c         ****             RDMResPacket.bySubStartCode = E120_SC_SUB_MESSAGE;
 1336              		.loc 1 367 0
 1337 0042 0122     		movs	r2, #1
 1338 0044 814B     		ldr	r3, .L136+8
 1339 0046 5A70     		strb	r2, [r3, #1]
 368:rdm.c         ****             state = MESSAGE_LENGTH;
 1340              		.loc 1 368 0
 1341 0048 0222     		movs	r2, #2
 1342 004a 7E4B     		ldr	r3, .L136
 1343 004c 1A70     		strb	r2, [r3]
 1344 004e 10BD     		pop	{r4, pc}
 1345              	.L99:
 369:rdm.c         ****         }
 370:rdm.c         ****     } break;
 371:rdm.c         **** 
 372:rdm.c         ****     case MESSAGE_LENGTH: {
 373:rdm.c         ****         if (dataByte >= 24) {
 1346              		.loc 1 373 0
 1347 0050 1728     		cmp	r0, #23
 1348 0052 05D9     		bls	.L111
 374:rdm.c         ****             RDMResPacket.byMessageLength = dataByte;
 1349              		.loc 1 374 0
 1350 0054 7D4B     		ldr	r3, .L136+8
 1351 0056 9870     		strb	r0, [r3, #2]
ARM GAS  C:\Users\jimvr\AppData\Local\Temp\cc53b030.s 			page 34


 375:rdm.c         ****             state = DESTINATION_UID;
 1352              		.loc 1 375 0
 1353 0058 0322     		movs	r2, #3
 1354 005a 7A4B     		ldr	r3, .L136
 1355 005c 1A70     		strb	r2, [r3]
 1356 005e 10BD     		pop	{r4, pc}
 1357              	.L111:
 376:rdm.c         ****         } else
 377:rdm.c         ****             state = IDLE;
 1358              		.loc 1 377 0
 1359 0060 0022     		movs	r2, #0
 1360 0062 784B     		ldr	r3, .L136
 1361 0064 1A70     		strb	r2, [r3]
 1362 0066 10BD     		pop	{r4, pc}
 1363              	.L100:
 378:rdm.c         ****     } break;
 379:rdm.c         **** 
 380:rdm.c         ****     case DESTINATION_UID: {
 381:rdm.c         ****         if (dataByte != RDM.RDM_DevID[paramCount])
 1364              		.loc 1 381 0
 1365 0068 794B     		ldr	r3, .L136+12
 1366 006a 1B78     		ldrb	r3, [r3]	@ zero_extendqisi2
 1367 006c 794A     		ldr	r2, .L136+16
 1368 006e D25C     		ldrb	r2, [r2, r3]	@ zero_extendqisi2
 1369 0070 9042     		cmp	r0, r2
 1370 0072 02D0     		beq	.L112
 382:rdm.c         ****             isDevice = false;
 1371              		.loc 1 382 0
 1372 0074 0024     		movs	r4, #0
 1373 0076 7849     		ldr	r1, .L136+20
 1374 0078 0C70     		strb	r4, [r1]
 1375              	.L112:
 383:rdm.c         ****         if (dataByte != 0xFF)
 1376              		.loc 1 383 0
 1377 007a FF28     		cmp	r0, #255
 1378 007c 02D0     		beq	.L113
 384:rdm.c         ****             isBroadcast = false;
 1379              		.loc 1 384 0
 1380 007e 0024     		movs	r4, #0
 1381 0080 7649     		ldr	r1, .L136+24
 1382 0082 0C70     		strb	r4, [r1]
 1383              	.L113:
 385:rdm.c         ****         if (paramCount < 2 && dataByte != RDM.RDM_DevID[paramCount])
 1384              		.loc 1 385 0
 1385 0084 012B     		cmp	r3, #1
 1386 0086 04D8     		bhi	.L114
 1387              		.loc 1 385 0 is_stmt 0 discriminator 1
 1388 0088 9042     		cmp	r0, r2
 1389 008a 02D0     		beq	.L114
 386:rdm.c         ****             isVendorcast = false;
 1390              		.loc 1 386 0 is_stmt 1
 1391 008c 0021     		movs	r1, #0
 1392 008e 744A     		ldr	r2, .L136+28
 1393 0090 1170     		strb	r1, [r2]
 1394              	.L114:
 387:rdm.c         ****         if (paramCount >= 2 && dataByte != 0xFF)
 1395              		.loc 1 387 0
ARM GAS  C:\Users\jimvr\AppData\Local\Temp\cc53b030.s 			page 35


 1396 0092 012B     		cmp	r3, #1
 1397 0094 04D9     		bls	.L115
 1398              		.loc 1 387 0 is_stmt 0 discriminator 1
 1399 0096 FF28     		cmp	r0, #255
 1400 0098 02D0     		beq	.L115
 388:rdm.c         ****             isVendorcast = false;
 1401              		.loc 1 388 0 is_stmt 1
 1402 009a 0021     		movs	r1, #0
 1403 009c 704A     		ldr	r2, .L136+28
 1404 009e 1170     		strb	r1, [r2]
 1405              	.L115:
 389:rdm.c         **** 
 390:rdm.c         ****         RDMResPacket.bySourceUID[paramCount] = dataByte;
 1406              		.loc 1 390 0
 1407 00a0 6A4A     		ldr	r2, .L136+8
 1408 00a2 1A44     		add	r2, r2, r3
 1409 00a4 5072     		strb	r0, [r2, #9]
 391:rdm.c         ****         paramCount++;
 1410              		.loc 1 391 0
 1411 00a6 0133     		adds	r3, r3, #1
 1412 00a8 DBB2     		uxtb	r3, r3
 1413 00aa 694A     		ldr	r2, .L136+12
 1414 00ac 1370     		strb	r3, [r2]
 392:rdm.c         **** 
 393:rdm.c         ****         if (paramCount >= 6) {
 1415              		.loc 1 393 0
 1416 00ae 052B     		cmp	r3, #5
 1417 00b0 40F2C780 		bls	.L94
 394:rdm.c         ****             if (isDevice || isVendorcast || isBroadcast) {
 1418              		.loc 1 394 0
 1419 00b4 684B     		ldr	r3, .L136+20
 1420 00b6 1B78     		ldrb	r3, [r3]	@ zero_extendqisi2
 1421 00b8 2BB9     		cbnz	r3, .L116
 1422              		.loc 1 394 0 is_stmt 0 discriminator 1
 1423 00ba 694B     		ldr	r3, .L136+28
 1424 00bc 1B78     		ldrb	r3, [r3]	@ zero_extendqisi2
 1425 00be 13B9     		cbnz	r3, .L116
 1426              		.loc 1 394 0 discriminator 2
 1427 00c0 664B     		ldr	r3, .L136+24
 1428 00c2 1B78     		ldrb	r3, [r3]	@ zero_extendqisi2
 1429 00c4 33B1     		cbz	r3, .L117
 1430              	.L116:
 395:rdm.c         ****                 paramCount = 0;
 1431              		.loc 1 395 0 is_stmt 1
 1432 00c6 0022     		movs	r2, #0
 1433 00c8 614B     		ldr	r3, .L136+12
 1434 00ca 1A70     		strb	r2, [r3]
 396:rdm.c         ****                 state = SOURCE_UID;
 1435              		.loc 1 396 0
 1436 00cc 0422     		movs	r2, #4
 1437 00ce 5D4B     		ldr	r3, .L136
 1438 00d0 1A70     		strb	r2, [r3]
 1439 00d2 10BD     		pop	{r4, pc}
 1440              	.L117:
 397:rdm.c         ****             } else
 398:rdm.c         ****                 state = IDLE;
 1441              		.loc 1 398 0
ARM GAS  C:\Users\jimvr\AppData\Local\Temp\cc53b030.s 			page 36


 1442 00d4 0022     		movs	r2, #0
 1443 00d6 5B4B     		ldr	r3, .L136
 1444 00d8 1A70     		strb	r2, [r3]
 1445 00da 10BD     		pop	{r4, pc}
 1446              	.L101:
 399:rdm.c         ****         }
 400:rdm.c         ****     } break;
 401:rdm.c         **** 
 402:rdm.c         ****     case SOURCE_UID: {
 403:rdm.c         ****         RDMResPacket.byDestinationUID[paramCount++] = dataByte;
 1447              		.loc 1 403 0
 1448 00dc 5C49     		ldr	r1, .L136+12
 1449 00de 0A78     		ldrb	r2, [r1]	@ zero_extendqisi2
 1450 00e0 531C     		adds	r3, r2, #1
 1451 00e2 DBB2     		uxtb	r3, r3
 1452 00e4 0B70     		strb	r3, [r1]
 1453 00e6 5949     		ldr	r1, .L136+8
 1454 00e8 0A44     		add	r2, r2, r1
 1455 00ea D070     		strb	r0, [r2, #3]
 404:rdm.c         ****         if (paramCount >= 6) {
 1456              		.loc 1 404 0
 1457 00ec 052B     		cmp	r3, #5
 1458 00ee 40F2A880 		bls	.L94
 405:rdm.c         ****             paramCount = 0;
 1459              		.loc 1 405 0
 1460 00f2 0022     		movs	r2, #0
 1461 00f4 564B     		ldr	r3, .L136+12
 1462 00f6 1A70     		strb	r2, [r3]
 406:rdm.c         ****             state = TRANSACTION_NUMBER;
 1463              		.loc 1 406 0
 1464 00f8 0522     		movs	r2, #5
 1465 00fa 524B     		ldr	r3, .L136
 1466 00fc 1A70     		strb	r2, [r3]
 1467 00fe 10BD     		pop	{r4, pc}
 1468              	.L102:
 407:rdm.c         ****         }
 408:rdm.c         ****     } break;
 409:rdm.c         **** 
 410:rdm.c         ****     case TRANSACTION_NUMBER: {
 411:rdm.c         ****         RDMResPacket.byTransactionNum = dataByte;
 1469              		.loc 1 411 0
 1470 0100 524B     		ldr	r3, .L136+8
 1471 0102 D873     		strb	r0, [r3, #15]
 412:rdm.c         ****         state = RESPONSE_TYPE;
 1472              		.loc 1 412 0
 1473 0104 0622     		movs	r2, #6
 1474 0106 4F4B     		ldr	r3, .L136
 1475 0108 1A70     		strb	r2, [r3]
 413:rdm.c         ****     } break;
 1476              		.loc 1 413 0
 1477 010a 10BD     		pop	{r4, pc}
 1478              	.L103:
 414:rdm.c         **** 
 415:rdm.c         ****     case RESPONSE_TYPE: {
 416:rdm.c         ****         RDMResPacket.byResponseType = dataByte;
 1479              		.loc 1 416 0
 1480 010c 4F4B     		ldr	r3, .L136+8
ARM GAS  C:\Users\jimvr\AppData\Local\Temp\cc53b030.s 			page 37


 1481 010e 1874     		strb	r0, [r3, #16]
 417:rdm.c         ****         state = MESSAGE_COUNT;
 1482              		.loc 1 417 0
 1483 0110 0722     		movs	r2, #7
 1484 0112 4C4B     		ldr	r3, .L136
 1485 0114 1A70     		strb	r2, [r3]
 418:rdm.c         ****     } break;
 1486              		.loc 1 418 0
 1487 0116 10BD     		pop	{r4, pc}
 1488              	.L104:
 419:rdm.c         **** 
 420:rdm.c         ****     case MESSAGE_COUNT: {
 421:rdm.c         ****         if (!dataByte) {
 1489              		.loc 1 421 0
 1490 0118 28B9     		cbnz	r0, .L118
 422:rdm.c         ****             RDMResPacket.byMessageCount = dataByte;
 1491              		.loc 1 422 0
 1492 011a 4C4B     		ldr	r3, .L136+8
 1493 011c 5874     		strb	r0, [r3, #17]
 423:rdm.c         ****             state = SUB_DEVICE;
 1494              		.loc 1 423 0
 1495 011e 0822     		movs	r2, #8
 1496 0120 484B     		ldr	r3, .L136
 1497 0122 1A70     		strb	r2, [r3]
 1498 0124 10BD     		pop	{r4, pc}
 1499              	.L118:
 424:rdm.c         ****         } else
 425:rdm.c         ****             state = IDLE;
 1500              		.loc 1 425 0
 1501 0126 0022     		movs	r2, #0
 1502 0128 464B     		ldr	r3, .L136
 1503 012a 1A70     		strb	r2, [r3]
 1504 012c 10BD     		pop	{r4, pc}
 1505              	.L105:
 426:rdm.c         ****     } break;
 427:rdm.c         **** 
 428:rdm.c         ****     case SUB_DEVICE: {
 429:rdm.c         ****         RDMResPacket.uiSubDevice = dataByte << (paramCount ? 8 : 0);
 1506              		.loc 1 429 0
 1507 012e 484B     		ldr	r3, .L136+12
 1508 0130 1B78     		ldrb	r3, [r3]	@ zero_extendqisi2
 1509 0132 0BB1     		cbz	r3, .L129
 1510 0134 0822     		movs	r2, #8
 1511 0136 00E0     		b	.L119
 1512              	.L129:
 1513 0138 0022     		movs	r2, #0
 1514              	.L119:
 1515              		.loc 1 429 0 is_stmt 0 discriminator 4
 1516 013a 9040     		lsls	r0, r0, r2
 1517              	.LVL170:
 1518 013c 434A     		ldr	r2, .L136+8
 1519 013e 5082     		strh	r0, [r2, #18]	@ unaligned
 430:rdm.c         ****         paramCount++;
 1520              		.loc 1 430 0 is_stmt 1 discriminator 4
 1521 0140 0133     		adds	r3, r3, #1
 1522 0142 DBB2     		uxtb	r3, r3
 1523 0144 424A     		ldr	r2, .L136+12
ARM GAS  C:\Users\jimvr\AppData\Local\Temp\cc53b030.s 			page 38


 1524 0146 1370     		strb	r3, [r2]
 431:rdm.c         ****         if (paramCount >= 2) {
 1525              		.loc 1 431 0 discriminator 4
 1526 0148 012B     		cmp	r3, #1
 1527 014a 7AD9     		bls	.L94
 432:rdm.c         ****             paramCount = 0;
 1528              		.loc 1 432 0
 1529 014c 0022     		movs	r2, #0
 1530 014e 404B     		ldr	r3, .L136+12
 1531 0150 1A70     		strb	r2, [r3]
 433:rdm.c         ****             state = COMMAND_CLASS;
 1532              		.loc 1 433 0
 1533 0152 0922     		movs	r2, #9
 1534 0154 3B4B     		ldr	r3, .L136
 1535 0156 1A70     		strb	r2, [r3]
 1536 0158 10BD     		pop	{r4, pc}
 1537              	.LVL171:
 1538              	.L106:
 434:rdm.c         ****         }
 435:rdm.c         ****     } break;
 436:rdm.c         **** 
 437:rdm.c         ****     case COMMAND_CLASS: {
 438:rdm.c         ****         RDMResPacket.byCommandClass = dataByte;
 1539              		.loc 1 438 0
 1540 015a 3C4B     		ldr	r3, .L136+8
 1541 015c 1875     		strb	r0, [r3, #20]
 439:rdm.c         ****         state = PARAMETER_ID;
 1542              		.loc 1 439 0
 1543 015e 0A22     		movs	r2, #10
 1544 0160 384B     		ldr	r3, .L136
 1545 0162 1A70     		strb	r2, [r3]
 440:rdm.c         ****     } break;
 1546              		.loc 1 440 0
 1547 0164 10BD     		pop	{r4, pc}
 1548              	.L107:
 441:rdm.c         **** 
 442:rdm.c         ****     case PARAMETER_ID: {
 443:rdm.c         ****         RDMResPacket.uiParameterID |= dataByte << (paramCount ? 8 : 0);
 1549              		.loc 1 443 0
 1550 0166 394B     		ldr	r3, .L136+8
 1551 0168 B3F91510 		ldrsh	r1, [r3, #21]	@ unaligned
 1552 016c 384B     		ldr	r3, .L136+12
 1553 016e 1B78     		ldrb	r3, [r3]	@ zero_extendqisi2
 1554 0170 0BB1     		cbz	r3, .L130
 1555 0172 0822     		movs	r2, #8
 1556 0174 00E0     		b	.L120
 1557              	.L130:
 1558 0176 0022     		movs	r2, #0
 1559              	.L120:
 1560              		.loc 1 443 0 is_stmt 0 discriminator 4
 1561 0178 9040     		lsls	r0, r0, r2
 1562              	.LVL172:
 1563 017a 0843     		orrs	r0, r0, r1
 1564 017c 334A     		ldr	r2, .L136+8
 1565 017e A2F81500 		strh	r0, [r2, #21]	@ unaligned
 444:rdm.c         ****         paramCount++;
 1566              		.loc 1 444 0 is_stmt 1 discriminator 4
ARM GAS  C:\Users\jimvr\AppData\Local\Temp\cc53b030.s 			page 39


 1567 0182 0133     		adds	r3, r3, #1
 1568 0184 DBB2     		uxtb	r3, r3
 1569 0186 324A     		ldr	r2, .L136+12
 1570 0188 1370     		strb	r3, [r2]
 445:rdm.c         ****         if (paramCount >= 2) {
 1571              		.loc 1 445 0 discriminator 4
 1572 018a 012B     		cmp	r3, #1
 1573 018c 59D9     		bls	.L94
 446:rdm.c         ****             paramCount = 0;
 1574              		.loc 1 446 0
 1575 018e 0022     		movs	r2, #0
 1576 0190 2F4B     		ldr	r3, .L136+12
 1577 0192 1A70     		strb	r2, [r3]
 447:rdm.c         ****             state = PARAMETER_LENGTH;
 1578              		.loc 1 447 0
 1579 0194 0B22     		movs	r2, #11
 1580 0196 2B4B     		ldr	r3, .L136
 1581 0198 1A70     		strb	r2, [r3]
 1582 019a 10BD     		pop	{r4, pc}
 1583              	.LVL173:
 1584              	.L108:
 448:rdm.c         ****         }
 449:rdm.c         ****     } break;
 450:rdm.c         **** 
 451:rdm.c         ****     case PARAMETER_LENGTH: {
 452:rdm.c         ****         if (dataByte == RDMResPacket.byMessageLength - 24) {
 1585              		.loc 1 452 0
 1586 019c 2B4B     		ldr	r3, .L136+8
 1587 019e 9B78     		ldrb	r3, [r3, #2]	@ zero_extendqisi2
 1588 01a0 183B     		subs	r3, r3, #24
 1589 01a2 9842     		cmp	r0, r3
 1590 01a4 0AD1     		bne	.L121
 453:rdm.c         ****             RDMResPacket.byParameterLength = dataByte;
 1591              		.loc 1 453 0
 1592 01a6 294B     		ldr	r3, .L136+8
 1593 01a8 D875     		strb	r0, [r3, #23]
 454:rdm.c         ****             if (dataByte)
 1594              		.loc 1 454 0
 1595 01aa 18B1     		cbz	r0, .L122
 455:rdm.c         ****                 state = PARAMETER_DATA;
 1596              		.loc 1 455 0
 1597 01ac 0C22     		movs	r2, #12
 1598 01ae 254B     		ldr	r3, .L136
 1599 01b0 1A70     		strb	r2, [r3]
 1600 01b2 10BD     		pop	{r4, pc}
 1601              	.L122:
 456:rdm.c         ****             else
 457:rdm.c         ****                 state = CHECKSUM;
 1602              		.loc 1 457 0
 1603 01b4 0D22     		movs	r2, #13
 1604 01b6 234B     		ldr	r3, .L136
 1605 01b8 1A70     		strb	r2, [r3]
 1606 01ba 10BD     		pop	{r4, pc}
 1607              	.L121:
 458:rdm.c         ****         } else
 459:rdm.c         ****             state = IDLE;
 1608              		.loc 1 459 0
ARM GAS  C:\Users\jimvr\AppData\Local\Temp\cc53b030.s 			page 40


 1609 01bc 0022     		movs	r2, #0
 1610 01be 214B     		ldr	r3, .L136
 1611 01c0 1A70     		strb	r2, [r3]
 1612 01c2 10BD     		pop	{r4, pc}
 1613              	.L109:
 460:rdm.c         ****     } break;
 461:rdm.c         **** 
 462:rdm.c         ****     case PARAMETER_DATA: {
 463:rdm.c         ****         RDMResPacket.byParameterData[paramCount++] = dataByte;
 1614              		.loc 1 463 0
 1615 01c4 2249     		ldr	r1, .L136+12
 1616 01c6 0A78     		ldrb	r2, [r1]	@ zero_extendqisi2
 1617 01c8 531C     		adds	r3, r2, #1
 1618 01ca DBB2     		uxtb	r3, r3
 1619 01cc 0B70     		strb	r3, [r1]
 1620 01ce 1F49     		ldr	r1, .L136+8
 1621 01d0 0A44     		add	r2, r2, r1
 1622 01d2 1076     		strb	r0, [r2, #24]
 464:rdm.c         ****         if (paramCount >= RDMResPacket.byParameterLength) {
 1623              		.loc 1 464 0
 1624 01d4 CA7D     		ldrb	r2, [r1, #23]	@ zero_extendqisi2
 1625 01d6 9342     		cmp	r3, r2
 1626 01d8 33D3     		bcc	.L94
 465:rdm.c         ****             paramCount = 0;
 1627              		.loc 1 465 0
 1628 01da 0022     		movs	r2, #0
 1629 01dc 1C4B     		ldr	r3, .L136+12
 1630 01de 1A70     		strb	r2, [r3]
 466:rdm.c         ****             state = CHECKSUM;
 1631              		.loc 1 466 0
 1632 01e0 0D22     		movs	r2, #13
 1633 01e2 184B     		ldr	r3, .L136
 1634 01e4 1A70     		strb	r2, [r3]
 1635 01e6 10BD     		pop	{r4, pc}
 1636              	.L110:
 467:rdm.c         ****         }
 468:rdm.c         ****     } break;
 469:rdm.c         **** 
 470:rdm.c         ****     case CHECKSUM: {
 471:rdm.c         ****         receivedChecksum |= dataByte << (paramCount ? 0 : 8);
 1637              		.loc 1 471 0
 1638 01e8 194B     		ldr	r3, .L136+12
 1639 01ea 1B78     		ldrb	r3, [r3]	@ zero_extendqisi2
 1640 01ec 0BB1     		cbz	r3, .L131
 1641 01ee 0022     		movs	r2, #0
 1642 01f0 00E0     		b	.L123
 1643              	.L131:
 1644 01f2 0822     		movs	r2, #8
 1645              	.L123:
 1646              		.loc 1 471 0 is_stmt 0 discriminator 4
 1647 01f4 9040     		lsls	r0, r0, r2
 1648              	.LVL174:
 1649 01f6 1B49     		ldr	r1, .L136+32
 1650 01f8 0A88     		ldrh	r2, [r1]
 1651 01fa 1043     		orrs	r0, r0, r2
 1652 01fc 80B2     		uxth	r0, r0
 1653 01fe 0880     		strh	r0, [r1]	@ movhi
ARM GAS  C:\Users\jimvr\AppData\Local\Temp\cc53b030.s 			page 41


 472:rdm.c         ****         paramCount++;
 1654              		.loc 1 472 0 is_stmt 1 discriminator 4
 1655 0200 0133     		adds	r3, r3, #1
 1656 0202 DBB2     		uxtb	r3, r3
 1657 0204 124A     		ldr	r2, .L136+12
 1658 0206 1370     		strb	r3, [r2]
 473:rdm.c         ****         if (paramCount >= 2) {
 1659              		.loc 1 473 0 discriminator 4
 1660 0208 012B     		cmp	r3, #1
 1661 020a 1AD9     		bls	.L94
 474:rdm.c         ****             if (receivedChecksum == calculatedChecksum + 0xCC) {
 1662              		.loc 1 474 0
 1663 020c 0E4B     		ldr	r3, .L136+4
 1664 020e 1B88     		ldrh	r3, [r3]
 1665 0210 CC33     		adds	r3, r3, #204
 1666 0212 9842     		cmp	r0, r3
 1667 0214 11D1     		bne	.L124
 1668              	.LVL175:
 1669              	.LBB15:
 475:rdm.c         ****                 PACKET_DEST PacketDest = UNKNOWN;
 476:rdm.c         **** 
 477:rdm.c         ****                 if (isDevice)
 1670              		.loc 1 477 0
 1671 0216 104B     		ldr	r3, .L136+20
 1672 0218 1B78     		ldrb	r3, [r3]	@ zero_extendqisi2
 1673 021a 0BB9     		cbnz	r3, .L132
 475:rdm.c         ****                 PACKET_DEST PacketDest = UNKNOWN;
 1674              		.loc 1 475 0
 1675 021c 0021     		movs	r1, #0
 1676 021e 00E0     		b	.L125
 1677              	.L132:
 478:rdm.c         ****                     PacketDest = DEVICE;
 1678              		.loc 1 478 0
 1679 0220 0121     		movs	r1, #1
 1680              	.L125:
 1681              	.LVL176:
 479:rdm.c         ****                 if (isBroadcast)
 1682              		.loc 1 479 0
 1683 0222 0E4B     		ldr	r3, .L136+24
 1684 0224 1B78     		ldrb	r3, [r3]	@ zero_extendqisi2
 1685 0226 03B1     		cbz	r3, .L126
 480:rdm.c         ****                     PacketDest = BROADCAST;
 1686              		.loc 1 480 0
 1687 0228 0221     		movs	r1, #2
 1688              	.LVL177:
 1689              	.L126:
 481:rdm.c         ****                 if (isVendorcast)
 1690              		.loc 1 481 0
 1691 022a 0D4B     		ldr	r3, .L136+28
 1692 022c 1B78     		ldrb	r3, [r3]	@ zero_extendqisi2
 1693 022e 03B1     		cbz	r3, .L127
 482:rdm.c         ****                     PacketDest = VENDORCAST;
 1694              		.loc 1 482 0
 1695 0230 0321     		movs	r1, #3
 1696              	.LVL178:
 1697              	.L127:
 483:rdm.c         **** 
ARM GAS  C:\Users\jimvr\AppData\Local\Temp\cc53b030.s 			page 42


 484:rdm.c         ****                 RDM_HandleRequest(&RDMResPacket, PacketDest);
 1698              		.loc 1 484 0
 1699 0232 0648     		ldr	r0, .L136+8
 1700 0234 FFF7FEFF 		bl	RDM_HandleRequest
 1701              	.LVL179:
 1702              	.LBE15:
 1703 0238 00E0     		b	.L128
 1704              	.L124:
 485:rdm.c         ****             } else {
 486:rdm.c         ****                 CY_NOP;
 1705              		.loc 1 486 0
 1706              		.syntax unified
 1707              	@ 486 "rdm.c" 1
 1708 023a 00BF     		NOP
 1709              	
 1710              	@ 0 "" 2
 1711              		.thumb
 1712              		.syntax unified
 1713              	.L128:
 487:rdm.c         ****             }
 488:rdm.c         ****             state = IDLE;
 1714              		.loc 1 488 0
 1715 023c 0022     		movs	r2, #0
 1716 023e 014B     		ldr	r3, .L136
 1717 0240 1A70     		strb	r2, [r3]
 1718              	.L94:
 1719 0242 10BD     		pop	{r4, pc}
 1720              	.L137:
 1721              		.align	2
 1722              	.L136:
 1723 0244 00000000 		.word	state
 1724 0248 00000000 		.word	calculatedChecksum
 1725 024c 00000000 		.word	RDMResPacket
 1726 0250 00000000 		.word	paramCount
 1727 0254 00000000 		.word	RDM
 1728 0258 00000000 		.word	isDevice
 1729 025c 00000000 		.word	isBroadcast
 1730 0260 00000000 		.word	isVendorcast
 1731 0264 00000000 		.word	receivedChecksum
 1732              		.cfi_endproc
 1733              	.LFE9:
 1734              		.size	RDM_AcceptByte, .-RDM_AcceptByte
 1735              		.comm	IsSlave,1,1
 1736              		.comm	isInTempFault,1,1
 1737              		.comm	uiTempFaultCount,4,4
 1738              		.comm	structeeprom,2,4
 1739              		.section	.rodata
 1740              		.align	2
 1741              		.set	.LANCHOR0,. + 0
 1742              	.LC0:
 1743 0000 FE       		.byte	-2
 1744 0001 FE       		.byte	-2
 1745 0002 FE       		.byte	-2
 1746 0003 FE       		.byte	-2
 1747 0004 FE       		.byte	-2
 1748 0005 FE       		.byte	-2
 1749 0006 FE       		.byte	-2
ARM GAS  C:\Users\jimvr\AppData\Local\Temp\cc53b030.s 			page 43


 1750 0007 AA       		.byte	-86
 1751 0008 AA       		.byte	-86
 1752 0009 55       		.byte	85
 1753 000a AA       		.byte	-86
 1754 000b 55       		.byte	85
 1755 000c AA       		.byte	-86
 1756 000d 55       		.byte	85
 1757 000e AA       		.byte	-86
 1758 000f 55       		.byte	85
 1759 0010 AA       		.byte	-86
 1760 0011 55       		.byte	85
 1761 0012 AA       		.byte	-86
 1762 0013 55       		.byte	85
 1763 0014 AA       		.byte	-86
 1764 0015 55       		.byte	85
 1765 0016 AA       		.byte	-86
 1766 0017 55       		.byte	85
 1767              		.section	.rodata.str1.4,"aMS",%progbits,1
 1768              		.align	2
 1769              	.LC1:
 1770 0000 7625642E 		.ascii	"v%d.%02d build %d\000"
 1770      25303264 
 1770      20627569 
 1770      6C642025 
 1770      6400
 1771              		.bss
 1772              		.set	.LANCHOR1,. + 0
 1773              		.type	discMuteFlag.5489, %object
 1774              		.size	discMuteFlag.5489, 1
 1775              	discMuteFlag.5489:
 1776 0000 00       		.space	1
 1777              		.text
 1778              	.Letext0:
 1779              		.file 2 "cytypes.h"
 1780              		.file 3 "rdm.h"
 1781              		.file 4 "main.h"
 1782              		.file 5 "<built-in>"
 1783              		.file 6 "c:\\program files (x86)\\cypress\\psoc creator\\4.1\\psoc creator\\import\\gnu\\arm\\5.4.
 1784              		.file 7 "queue.h"