ARM GAS  C:\Users\jimvr\AppData\Local\Temp\ccvj6NOo.s 			page 1


   1              		.syntax unified
   2              		.cpu cortex-m3
   3              		.fpu softvfp
   4              		.eabi_attribute 20, 1
   5              		.eabi_attribute 21, 1
   6              		.eabi_attribute 23, 3
   7              		.eabi_attribute 24, 1
   8              		.eabi_attribute 25, 1
   9              		.eabi_attribute 26, 1
  10              		.eabi_attribute 30, 4
  11              		.eabi_attribute 34, 1
  12              		.eabi_attribute 18, 4
  13              		.thumb
  14              		.syntax unified
  15              		.file	"dmx.c"
  16              		.text
  17              	.Ltext0:
  18              		.cfi_sections	.debug_frame
  19              		.section	.text.transmitResponse,"ax",%progbits
  20              		.align	1
  21              		.global	transmitResponse
  22              		.thumb
  23              		.thumb_func
  24              		.type	transmitResponse, %function
  25              	transmitResponse:
  26              	.LFB0:
  27              		.file 1 "dmx.c"
   1:dmx.c         **** /*
   2:dmx.c         **** 
   3:dmx.c         ****     dmx.c
   4:dmx.c         ****     *****************************************************************************
   5:dmx.c         ****     * Copyright (2014 - 2019) The NED Group
   6:dmx.c         ****     ******************************************************************************
   7:dmx.c         ****     see main.c for full disclaimer
   8:dmx.c         ****     
   9:dmx.c         **** */
  10:dmx.c         ****     
  11:dmx.c         **** #include "RDM_Header.h"
  12:dmx.c         **** 
  13:dmx.c         **** 
  14:dmx.c         **** // DMX timers for cable on/off glitches
  15:dmx.c         **** extern uint16 uiDMXLossTimer;
  16:dmx.c         **** extern uint16 uiDMXPresentTimer;
  17:dmx.c         **** extern uint16 uiwDMXLossTimer;
  18:dmx.c         **** extern uint16 uiwDMXPresentTimer;
  19:dmx.c         **** //
  20:dmx.c         **** extern structInfo Info;
  21:dmx.c         **** extern structRDMPacket RDMResPacket;
  22:dmx.c         **** extern structRDM RDM;
  23:dmx.c         **** 
  24:dmx.c         **** extern volatile uint8 byDMXGood;
  25:dmx.c         **** extern volatile uint8 byDMXData[];
  26:dmx.c         **** extern uint8 bySlaveUnitID;
  27:dmx.c         **** 
  28:dmx.c         **** 
  29:dmx.c         **** //write a function to handle RDM response transmission
  30:dmx.c         **** //note the optional break
ARM GAS  C:\Users\jimvr\AppData\Local\Temp\ccvj6NOo.s 			page 2


  31:dmx.c         **** void transmitResponse(const uint8 *data, uint8 length, uint8 isbreak)
  32:dmx.c         **** {
  28              		.loc 1 32 0
  29              		.cfi_startproc
  30              		@ args = 0, pretend = 0, frame = 0
  31              		@ frame_needed = 0, uses_anonymous_args = 0
  32              	.LVL0:
  33 0000 70B5     		push	{r4, r5, r6, lr}
  34              		.cfi_def_cfa_offset 16
  35              		.cfi_offset 4, -16
  36              		.cfi_offset 5, -12
  37              		.cfi_offset 6, -8
  38              		.cfi_offset 14, -4
  39              		.loc 1 32 0
  40 0002 1646     		mov	r6, r2
  41 0004 0446     		mov	r4, r0
  33:dmx.c         ****     DMX_Control_Reg_Write(0x02);
  42              		.loc 1 33 0
  43 0006 0220     		movs	r0, #2
  44              	.LVL1:
  32:dmx.c         ****     DMX_Control_Reg_Write(0x02);
  45              		.loc 1 32 0
  46 0008 0D46     		mov	r5, r1
  47              		.loc 1 33 0
  48 000a FFF7FEFF 		bl	DMX_Control_Reg_Write
  49              	.LVL2:
  34:dmx.c         ****         
  35:dmx.c         **** 	if(isbreak)
  50              		.loc 1 35 0
  51 000e 2EB1     		cbz	r6, .L2
  36:dmx.c         **** 	{
  37:dmx.c         ****       	DMX_Control_Reg_Write(0x03);
  52              		.loc 1 37 0
  53 0010 0320     		movs	r0, #3
  54 0012 FFF7FEFF 		bl	DMX_Control_Reg_Write
  55              	.LVL3:
  38:dmx.c         **** 		CyDelayUs(125);
  56              		.loc 1 38 0
  57 0016 7D20     		movs	r0, #125
  58 0018 FFF7FEFF 		bl	CyDelayUs
  59              	.LVL4:
  60              	.L2:
  39:dmx.c         **** 	}
  40:dmx.c         **** 
  41:dmx.c         **** 	DMX_Control_Reg_Write(0x02);
  61              		.loc 1 41 0
  62 001c 0220     		movs	r0, #2
  63 001e FFF7FEFF 		bl	DMX_Control_Reg_Write
  64              	.LVL5:
  42:dmx.c         **** 	CyDelayUs(16);
  65              		.loc 1 42 0
  66 0022 1020     		movs	r0, #16
  67 0024 FFF7FEFF 		bl	CyDelayUs
  68              	.LVL6:
  43:dmx.c         **** 
  44:dmx.c         **** 	DMX_UART_PutArray(data, length);
  69              		.loc 1 44 0
ARM GAS  C:\Users\jimvr\AppData\Local\Temp\ccvj6NOo.s 			page 3


  70 0028 2946     		mov	r1, r5
  71 002a 2046     		mov	r0, r4
  72 002c FFF7FEFF 		bl	DMX_UART_PutArray
  73              	.LVL7:
  45:dmx.c         **** 	while (!(DMX_UART_TXSTATUS & DMX_UART_TX_STS_COMPLETE));
  74              		.loc 1 45 0
  75 0030 0648     		ldr	r0, .L10
  76 0032 0749     		ldr	r1, .L10+4
  77              	.L3:
  78              		.loc 1 45 0 is_stmt 0 discriminator 1
  79 0034 0278     		ldrb	r2, [r0]	@ zero_extendqisi2
  80 0036 0B78     		ldrb	r3, [r1]	@ zero_extendqisi2
  81 0038 1A42     		tst	r2, r3
  82 003a FBD0     		beq	.L3
  46:dmx.c         **** 	CyDelayUs(8);
  83              		.loc 1 46 0 is_stmt 1
  84 003c 0820     		movs	r0, #8
  85 003e FFF7FEFF 		bl	CyDelayUs
  86              	.LVL8:
  47:dmx.c         **** 
  48:dmx.c         **** 	DMX_Control_Reg_Write(0x00);
  49:dmx.c         **** }
  87              		.loc 1 49 0
  88 0042 BDE87040 		pop	{r4, r5, r6, lr}
  89              		.cfi_restore 14
  90              		.cfi_restore 6
  91              		.cfi_restore 5
  92              		.cfi_restore 4
  93              		.cfi_def_cfa_offset 0
  94              	.LVL9:
  48:dmx.c         **** }
  95              		.loc 1 48 0
  96 0046 0020     		movs	r0, #0
  97 0048 FFF7FEBF 		b	DMX_Control_Reg_Write
  98              	.LVL10:
  99              	.L11:
 100              		.align	2
 101              	.L10:
 102 004c 00000000 		.word	DMX_UART_TXSTATUS
 103 0050 00000000 		.word	DMX_UART_TX_STS_COMPLETE
 104              		.cfi_endproc
 105              	.LFE0:
 106              		.size	transmitResponse, .-transmitResponse
 107              		.section	.text.DMXRxISRHandler,"ax",%progbits
 108              		.align	1
 109              		.global	DMXRxISRHandler
 110              		.thumb
 111              		.thumb_func
 112              		.type	DMXRxISRHandler, %function
 113              	DMXRxISRHandler:
 114              	.LFB1:
  50:dmx.c         **** 
  51:dmx.c         **** 
  52:dmx.c         **** #define CHECK_FRAMES 4
  53:dmx.c         **** #define DMX_BUFFER_LEN (NUMCHANNELS*2)
  54:dmx.c         **** 
  55:dmx.c         **** #define SC_DMX 0x00
ARM GAS  C:\Users\jimvr\AppData\Local\Temp\ccvj6NOo.s 			page 4


  56:dmx.c         **** #define SC_RDM 0xCC
  57:dmx.c         **** 
  58:dmx.c         **** // so that we can use the RDM routine for either port
  59:dmx.c         **** void (*const PWM_ADIM_WriteCompare[NUMCHANNELS]) (uint16_t) = {PWM_ADIM_1_WriteCompare1, PWM_ADIM_1
  60:dmx.c         ****                                                                PWM_BOTHDIM5_WriteCompare1, PWM_BOTH
  61:dmx.c         **** 
  62:dmx.c         **** CY_ISR(DMXRxISRHandler)
  63:dmx.c         **** {
 115              		.loc 1 63 0
 116              		.cfi_startproc
 117              		@ args = 0, pretend = 0, frame = 0
 118              		@ frame_needed = 0, uses_anonymous_args = 0
 119 0000 2DE9F041 		push	{r4, r5, r6, r7, r8, lr}
 120              		.cfi_def_cfa_offset 24
 121              		.cfi_offset 4, -24
 122              		.cfi_offset 5, -20
 123              		.cfi_offset 6, -16
 124              		.cfi_offset 7, -12
 125              		.cfi_offset 8, -8
 126              		.cfi_offset 14, -4
  64:dmx.c         **** 	static uint8 data_buffer[DMX_BUFFER_LEN] = {};
  65:dmx.c         **** 	static size_t data_idx = 0;
  66:dmx.c         **** 	
  67:dmx.c         **** 	static enum {e_IDLE, e_START, e_DATA, e_RDM} state = e_IDLE;
  68:dmx.c         **** 	if (DMX_UART_RXSTATUS & DMX_UART_RX_STS_STOP_ERROR) {
 127              		.loc 1 68 0
 128 0004 424B     		ldr	r3, .L40
 129 0006 434D     		ldr	r5, .L40+4
 130 0008 2A78     		ldrb	r2, [r5]	@ zero_extendqisi2
 131 000a 1B78     		ldrb	r3, [r3]	@ zero_extendqisi2
 132 000c 1A42     		tst	r2, r3
 133 000e 03D1     		bne	.L36
 134              	.LBB2:
  69:dmx.c         **** 		static uint16 check_frame[CHECK_FRAMES] = {};
  70:dmx.c         **** 		static uint8 check_idx = 0;
  71:dmx.c         **** 		
  72:dmx.c         **** 		check_frame[check_idx++] = data_idx;
  73:dmx.c         **** 		if (check_idx >= CHECK_FRAMES) check_idx = 0;
  74:dmx.c         **** 		
  75:dmx.c         **** 		bool check = true;
  76:dmx.c         **** 		uint16 check_val = check_frame[0];
  77:dmx.c         **** 		for (uint8 i=1; i<CHECK_FRAMES; i++) if (check_frame[i] != check_val)
  78:dmx.c         **** 			check = false;
  79:dmx.c         **** 		
  80:dmx.c         **** 		if (check) 
  81:dmx.c         ****         {
  82:dmx.c         **** 			memcpy((uint8 *)byDMXData, data_buffer, (NUMCHANNELS*2));
  83:dmx.c         **** 		    byDMXGood = true;
  84:dmx.c         **** 		}
  85:dmx.c         **** 		
  86:dmx.c         **** 		data_idx = 0;
  87:dmx.c         **** 		state = e_START;
  88:dmx.c         **** 		DMX_UART_ClearRxBuffer();
  89:dmx.c         **** 		RDM_ResetState();
  90:dmx.c         **** 	} 
  91:dmx.c         ****     else while (DMX_UART_RXSTATUS & DMX_UART_RX_STS_FIFO_NOTEMPTY) 
  92:dmx.c         ****     {
ARM GAS  C:\Users\jimvr\AppData\Local\Temp\ccvj6NOo.s 			page 5


  93:dmx.c         **** 		uint8 data = DMX_UART_RXDATA;
  94:dmx.c         **** 			
  95:dmx.c         **** 		switch (state)
 135              		.loc 1 95 0
 136 0010 414C     		ldr	r4, .L40+8
 137              	.LBE2:
  91:dmx.c         ****     {
 138              		.loc 1 91 0
 139 0012 424F     		ldr	r7, .L40+12
 140 0014 2646     		mov	r6, r4
 141 0016 3CE0     		b	.L13
 142              	.L36:
 143              	.LBB4:
  72:dmx.c         **** 		if (check_idx >= CHECK_FRAMES) check_idx = 0;
 144              		.loc 1 72 0
 145 0018 3F4B     		ldr	r3, .L40+8
 146 001a 1978     		ldrb	r1, [r3]	@ zero_extendqisi2
 147 001c D868     		ldr	r0, [r3, #12]
 148 001e 4A1C     		adds	r2, r1, #1
 149 0020 D2B2     		uxtb	r2, r2
  73:dmx.c         **** 		
 150              		.loc 1 73 0
 151 0022 032A     		cmp	r2, #3
  72:dmx.c         **** 		if (check_idx >= CHECK_FRAMES) check_idx = 0;
 152              		.loc 1 72 0
 153 0024 03EB4101 		add	r1, r3, r1, lsl #1
 154 0028 4880     		strh	r0, [r1, #2]	@ movhi
 155 002a 1A70     		strb	r2, [r3]
  73:dmx.c         **** 		
 156              		.loc 1 73 0
 157 002c 88BF     		it	hi
 158 002e 0022     		movhi	r2, #0
  76:dmx.c         **** 		for (uint8 i=1; i<CHECK_FRAMES; i++) if (check_frame[i] != check_val)
 159              		.loc 1 76 0
 160 0030 5988     		ldrh	r1, [r3, #2]
  73:dmx.c         **** 		
 161              		.loc 1 73 0
 162 0032 88BF     		it	hi
 163 0034 1A70     		strbhi	r2, [r3]
 164              	.LVL11:
 165              	.LBB5:
  77:dmx.c         **** 			check = false;
 166              		.loc 1 77 0
 167 0036 9A88     		ldrh	r2, [r3, #4]
 168 0038 501A     		subs	r0, r2, r1
 169 003a 4242     		rsbs	r2, r0, #0
 170 003c 4241     		adcs	r2, r2, r0
 171              	.LVL12:
 172 003e D888     		ldrh	r0, [r3, #6]
  78:dmx.c         **** 		
 173              		.loc 1 78 0
 174 0040 8842     		cmp	r0, r1
 175 0042 18BF     		it	ne
 176 0044 0022     		movne	r2, #0
 177              	.LVL13:
  77:dmx.c         **** 			check = false;
 178              		.loc 1 77 0
ARM GAS  C:\Users\jimvr\AppData\Local\Temp\ccvj6NOo.s 			page 6


 179 0046 1889     		ldrh	r0, [r3, #8]
 180 0048 8842     		cmp	r0, r1
 181 004a 0BD1     		bne	.L17
 182              	.LVL14:
 183              	.LBE5:
  80:dmx.c         ****         {
 184              		.loc 1 80 0 discriminator 2
 185 004c 52B1     		cbz	r2, .L17
 186              	.LBB6:
  82:dmx.c         **** 		    byDMXGood = true;
 187              		.loc 1 82 0
 188 004e 3448     		ldr	r0, .L40+16
 189 0050 3449     		ldr	r1, .L40+20
 190              	.LVL15:
 191 0052 0268     		ldr	r2, [r0]	@ unaligned
 192              	.LVL16:
 193 0054 0A60     		str	r2, [r1]	@ unaligned
 194 0056 4268     		ldr	r2, [r0, #4]	@ unaligned
 195 0058 4A60     		str	r2, [r1, #4]	@ unaligned
 196 005a 8268     		ldr	r2, [r0, #8]	@ unaligned
 197 005c 8A60     		str	r2, [r1, #8]	@ unaligned
  83:dmx.c         **** 		}
 198              		.loc 1 83 0
 199 005e 324A     		ldr	r2, .L40+24
 200 0060 0121     		movs	r1, #1
 201 0062 1170     		strb	r1, [r2]
 202              	.LVL17:
 203              	.L17:
 204              	.LBE6:
  86:dmx.c         **** 		state = e_START;
 205              		.loc 1 86 0
 206 0064 0022     		movs	r2, #0
 207 0066 DA60     		str	r2, [r3, #12]
  87:dmx.c         **** 		DMX_UART_ClearRxBuffer();
 208              		.loc 1 87 0
 209 0068 0122     		movs	r2, #1
 210 006a 1A77     		strb	r2, [r3, #28]
  88:dmx.c         **** 		RDM_ResetState();
 211              		.loc 1 88 0
 212 006c FFF7FEFF 		bl	DMX_UART_ClearRxBuffer
 213              	.LVL18:
 214              	.LBE4:
  96:dmx.c         ****         {
  97:dmx.c         **** 		    case e_IDLE:
  98:dmx.c         ****             default:
  99:dmx.c         ****             break;
 100:dmx.c         **** 			
 101:dmx.c         **** 		    case e_START:
 102:dmx.c         ****     			if (data == SC_DMX)
 103:dmx.c         ****                     state = e_DATA;
 104:dmx.c         ****     			else if (data == SC_RDM)
 105:dmx.c         ****                     state = e_RDM;
 106:dmx.c         ****     			else
 107:dmx.c         ****                     state = e_IDLE;
 108:dmx.c         **** 			break;
 109:dmx.c         **** 			
 110:dmx.c         ****     		case e_DATA:
ARM GAS  C:\Users\jimvr\AppData\Local\Temp\ccvj6NOo.s 			page 7


 111:dmx.c         **** 	    		for (uint8 i=0; i<NUMCHANNELS; i++)
 112:dmx.c         ****                 {
 113:dmx.c         ****                     // 8 bit values
 114:dmx.c         ****                     if(RDM.stRDMPersonality == 1 || RDM.stRDMPersonality == 3)
 115:dmx.c         ****                     {
 116:dmx.c         ****                         if (Info.uiDMXChannel[i] == data_idx)
 117:dmx.c         ****                             data_buffer[i] = data;
 118:dmx.c         ****                     }
 119:dmx.c         ****                     // 16-bit values
 120:dmx.c         ****                     else
 121:dmx.c         ****                     {
 122:dmx.c         ****                         if (Info.uiDMXChannel[i] == data_idx) 
 123:dmx.c         ****                             data_buffer[i*2] = data;
 124:dmx.c         ****                         else if (Info.uiDMXChannel[i] + 1 == data_idx) 
 125:dmx.c         ****                             data_buffer[(i*2)+1] = data;
 126:dmx.c         ****                     }
 127:dmx.c         ****                 }
 128:dmx.c         **** 			break;
 129:dmx.c         **** 			
 130:dmx.c         ****     		case e_RDM:
 131:dmx.c         **** 	    		if (!IsSlave)
 132:dmx.c         ****                     RDM_AcceptByte(data);
 133:dmx.c         ****                 
 134:dmx.c         **** 			    uiDMXLossTimer = DMXLOSSTIME;
 135:dmx.c         **** 			break;
 136:dmx.c         **** 		}
 137:dmx.c         **** 		
 138:dmx.c         **** 		data_idx++;
 139:dmx.c         **** 	}
 140:dmx.c         **** }
 215              		.loc 1 140 0
 216 0070 BDE8F041 		pop	{r4, r5, r6, r7, r8, lr}
 217              		.cfi_remember_state
 218              		.cfi_restore 14
 219              		.cfi_restore 8
 220              		.cfi_restore 7
 221              		.cfi_restore 6
 222              		.cfi_restore 5
 223              		.cfi_restore 4
 224              		.cfi_def_cfa_offset 0
 225              	.LBB7:
  89:dmx.c         **** 	} 
 226              		.loc 1 89 0
 227 0074 FFF7FEBF 		b	RDM_ResetState
 228              	.LVL19:
 229              	.L29:
 230              		.cfi_restore_state
 231              	.LBE7:
 232              	.LBB8:
  93:dmx.c         **** 			
 233              		.loc 1 93 0
 234 0078 2C4B     		ldr	r3, .L40+28
 235 007a 1878     		ldrb	r0, [r3]	@ zero_extendqisi2
  95:dmx.c         ****         {
 236              		.loc 1 95 0
 237 007c 237F     		ldrb	r3, [r4, #28]	@ zero_extendqisi2
  93:dmx.c         **** 			
ARM GAS  C:\Users\jimvr\AppData\Local\Temp\ccvj6NOo.s 			page 8


 238              		.loc 1 93 0
 239 007e C0B2     		uxtb	r0, r0
 240              	.LVL20:
  95:dmx.c         ****         {
 241              		.loc 1 95 0
 242 0080 022B     		cmp	r3, #2
 243 0082 15D0     		beq	.L19
 244 0084 032B     		cmp	r3, #3
 245 0086 37D0     		beq	.L20
 246 0088 012B     		cmp	r3, #1
 247 008a 07D0     		beq	.L38
 248              	.LVL21:
 249              	.L18:
 138:dmx.c         **** 	}
 250              		.loc 1 138 0
 251 008c F368     		ldr	r3, [r6, #12]
 252 008e 0133     		adds	r3, r3, #1
 253 0090 F360     		str	r3, [r6, #12]
 254              	.L13:
 255              	.LBE8:
  91:dmx.c         ****     {
 256              		.loc 1 91 0
 257 0092 2A78     		ldrb	r2, [r5]	@ zero_extendqisi2
 258 0094 3B78     		ldrb	r3, [r7]	@ zero_extendqisi2
 259 0096 1A42     		tst	r2, r3
 260 0098 EED1     		bne	.L29
 261 009a 37E0     		b	.L39
 262              	.LVL22:
 263              	.L38:
 264              	.LBB9:
 102:dmx.c         ****                     state = e_DATA;
 265              		.loc 1 102 0
 266 009c 08B9     		cbnz	r0, .L22
 103:dmx.c         ****     			else if (data == SC_RDM)
 267              		.loc 1 103 0
 268 009e 0223     		movs	r3, #2
 269 00a0 02E0     		b	.L37
 270              	.L22:
 104:dmx.c         ****                     state = e_RDM;
 271              		.loc 1 104 0
 272 00a2 CC28     		cmp	r0, #204
 273 00a4 02D1     		bne	.L23
 105:dmx.c         ****     			else
 274              		.loc 1 105 0
 275 00a6 0323     		movs	r3, #3
 276              	.L37:
 277 00a8 2377     		strb	r3, [r4, #28]
 278 00aa EFE7     		b	.L18
 279              	.L23:
 107:dmx.c         **** 			break;
 280              		.loc 1 107 0
 281 00ac 0023     		movs	r3, #0
 282 00ae FBE7     		b	.L37
 283              	.L19:
 284              	.LBB3:
 114:dmx.c         ****                     {
 285              		.loc 1 114 0
ARM GAS  C:\Users\jimvr\AppData\Local\Temp\ccvj6NOo.s 			page 9


 286 00b0 1F4B     		ldr	r3, .L40+32
 116:dmx.c         ****                             data_buffer[i] = data;
 287              		.loc 1 116 0
 288 00b2 E168     		ldr	r1, [r4, #12]
 114:dmx.c         ****                     {
 289              		.loc 1 114 0
 290 00b4 93F808E0 		ldrb	lr, [r3, #8]	@ zero_extendqisi2
 291 00b8 DFF88080 		ldr	r8, .L40+44
 125:dmx.c         ****                     }
 292              		.loc 1 125 0
 293 00bc DFF860C0 		ldr	ip, .L40+16
 114:dmx.c         ****                     {
 294              		.loc 1 114 0
 295 00c0 0EF0FD0E 		and	lr, lr, #253
 116:dmx.c         ****                             data_buffer[i] = data;
 296              		.loc 1 116 0
 297 00c4 0023     		movs	r3, #0
 298              	.L27:
 299              	.LVL23:
 114:dmx.c         ****                     {
 300              		.loc 1 114 0
 301 00c6 BEF1010F 		cmp	lr, #1
 116:dmx.c         ****                             data_buffer[i] = data;
 302              		.loc 1 116 0
 303 00ca 38F81320 		ldrh	r2, [r8, r3, lsl #1]	@ unaligned
 114:dmx.c         ****                     {
 304              		.loc 1 114 0
 305 00ce 04D1     		bne	.L24
 116:dmx.c         ****                             data_buffer[i] = data;
 306              		.loc 1 116 0
 307 00d0 8A42     		cmp	r2, r1
 308 00d2 0DD1     		bne	.L25
 117:dmx.c         ****                     }
 309              		.loc 1 117 0
 310 00d4 03F80C00 		strb	r0, [r3, ip]
 311 00d8 0AE0     		b	.L25
 312              	.L24:
 122:dmx.c         ****                             data_buffer[i*2] = data;
 313              		.loc 1 122 0
 314 00da 8A42     		cmp	r2, r1
 315 00dc 02D1     		bne	.L26
 123:dmx.c         ****                         else if (Info.uiDMXChannel[i] + 1 == data_idx) 
 316              		.loc 1 123 0
 317 00de 0CF81300 		strb	r0, [ip, r3, lsl #1]
 318 00e2 05E0     		b	.L25
 319              	.L26:
 124:dmx.c         ****                             data_buffer[(i*2)+1] = data;
 320              		.loc 1 124 0
 321 00e4 0132     		adds	r2, r2, #1
 322 00e6 8A42     		cmp	r2, r1
 125:dmx.c         ****                     }
 323              		.loc 1 125 0
 324 00e8 04BF     		itt	eq
 325 00ea 0CEB4302 		addeq	r2, ip, r3, lsl #1
 326 00ee 5070     		strbeq	r0, [r2, #1]
 327              	.L25:
 328              	.LVL24:
ARM GAS  C:\Users\jimvr\AppData\Local\Temp\ccvj6NOo.s 			page 10


 329 00f0 0133     		adds	r3, r3, #1
 330              	.LVL25:
 111:dmx.c         ****                 {
 331              		.loc 1 111 0 discriminator 2
 332 00f2 062B     		cmp	r3, #6
 333 00f4 E7D1     		bne	.L27
 334 00f6 C9E7     		b	.L18
 335              	.L20:
 336              	.LBE3:
 131:dmx.c         ****                     RDM_AcceptByte(data);
 337              		.loc 1 131 0
 338 00f8 0E4B     		ldr	r3, .L40+36
 339 00fa 1B78     		ldrb	r3, [r3]	@ zero_extendqisi2
 340 00fc 0BB9     		cbnz	r3, .L28
 132:dmx.c         ****                 
 341              		.loc 1 132 0
 342 00fe FFF7FEFF 		bl	RDM_AcceptByte
 343              	.LVL26:
 344              	.L28:
 134:dmx.c         **** 			break;
 345              		.loc 1 134 0
 346 0102 0D4B     		ldr	r3, .L40+40
 347 0104 4FF4FA72 		mov	r2, #500
 348 0108 1A80     		strh	r2, [r3]	@ movhi
 135:dmx.c         **** 		}
 349              		.loc 1 135 0
 350 010a BFE7     		b	.L18
 351              	.L39:
 352              	.LBE9:
 353              		.loc 1 140 0
 354 010c BDE8F081 		pop	{r4, r5, r6, r7, r8, pc}
 355              	.L41:
 356              		.align	2
 357              	.L40:
 358 0110 00000000 		.word	DMX_UART_RX_STS_STOP_ERROR
 359 0114 00000000 		.word	DMX_UART_RXSTATUS
 360 0118 00000000 		.word	.LANCHOR0
 361 011c 00000000 		.word	DMX_UART_RX_STS_FIFO_NOTEMPTY
 362 0120 10000000 		.word	.LANCHOR0+16
 363 0124 00000000 		.word	byDMXData
 364 0128 00000000 		.word	byDMXGood
 365 012c 00000000 		.word	DMX_UART_RXDATA
 366 0130 00000000 		.word	RDM
 367 0134 00000000 		.word	IsSlave
 368 0138 00000000 		.word	uiDMXLossTimer
 369 013c 00000000 		.word	Info
 370              		.cfi_endproc
 371              	.LFE1:
 372              		.size	DMXRxISRHandler, .-DMXRxISRHandler
 373              		.global	PWM_ADIM_WriteCompare
 374              		.comm	DMX_UART_RXDATA,1,1
 375              		.comm	DMX_UART_RX_STS_FIFO_NOTEMPTY,1,1
 376              		.comm	DMX_UART_RX_STS_STOP_ERROR,1,1
 377              		.comm	DMX_UART_RXSTATUS,1,1
 378              		.comm	DMX_UART_TX_STS_COMPLETE,1,1
 379              		.comm	DMX_UART_TXSTATUS,1,1
 380              		.comm	IsSlave,1,1
ARM GAS  C:\Users\jimvr\AppData\Local\Temp\ccvj6NOo.s 			page 11


 381              		.comm	isInTempFault,1,1
 382              		.comm	uiTempFaultCount,4,4
 383              		.comm	structeeprom,2,1
 384              		.section	.rodata
 385              		.align	2
 386              		.type	PWM_ADIM_WriteCompare, %object
 387              		.size	PWM_ADIM_WriteCompare, 24
 388              	PWM_ADIM_WriteCompare:
 389 0000 00000000 		.word	PWM_ADIM_1_WriteCompare1
 390 0004 00000000 		.word	PWM_ADIM_1_WriteCompare2
 391 0008 00000000 		.word	PWM_ADIM_2_WriteCompare1
 392 000c 00000000 		.word	PWM_ADIM_2_WriteCompare2
 393 0010 00000000 		.word	PWM_BOTHDIM5_WriteCompare1
 394 0014 00000000 		.word	PWM_BOTHDIM6_WriteCompare1
 395              		.bss
 396              		.align	2
 397              		.set	.LANCHOR0,. + 0
 398              		.type	check_idx.4580, %object
 399              		.size	check_idx.4580, 1
 400              	check_idx.4580:
 401 0000 00       		.space	1
 402 0001 00       		.space	1
 403              		.type	check_frame.4579, %object
 404              		.size	check_frame.4579, 8
 405              	check_frame.4579:
 406 0002 00000000 		.space	8
 406      00000000 
 407 000a 0000     		.space	2
 408              		.type	data_idx.4572, %object
 409              		.size	data_idx.4572, 4
 410              	data_idx.4572:
 411 000c 00000000 		.space	4
 412              		.type	data_buffer.4571, %object
 413              		.size	data_buffer.4571, 12
 414              	data_buffer.4571:
 415 0010 00000000 		.space	12
 415      00000000 
 415      00000000 
 416              		.type	state.4578, %object
 417              		.size	state.4578, 1
 418              	state.4578:
 419 001c 00       		.space	1
 420              		.text
 421              	.Letext0:
 422              		.file 2 "c:\\program files (x86)\\cypress\\psoc creator\\4.1\\psoc creator\\import\\gnu\\arm\\5.4.
 423              		.file 3 "c:\\program files (x86)\\cypress\\psoc creator\\4.1\\psoc creator\\import\\gnu\\arm\\5.4.
 424              		.file 4 "cytypes.h"
 425              		.file 5 "rdm.h"
 426              		.file 6 "main.h"
 427              		.file 7 "RDM_Header.h"
 428              		.file 8 "<built-in>"