ARM GAS  C:\Users\jimvr\AppData\Local\Temp\cc51sMLj.s 			page 1


   1              		.syntax unified
   2              		.cpu cortex-m3
   3              		.fpu softvfp
   4              		.eabi_attribute 20, 1
   5              		.eabi_attribute 21, 1
   6              		.eabi_attribute 23, 3
   7              		.eabi_attribute 24, 1
   8              		.eabi_attribute 25, 1
   9              		.eabi_attribute 26, 1
  10              		.eabi_attribute 30, 4
  11              		.eabi_attribute 34, 1
  12              		.eabi_attribute 18, 4
  13              		.thumb
  14              		.syntax unified
  15              		.file	"pids.c"
  16              		.text
  17              	.Ltext0:
  18              		.cfi_sections	.debug_frame
  19              		.section	.text.getDMXPersonality,"ax",%progbits
  20              		.align	1
  21              		.global	getDMXPersonality
  22              		.thumb
  23              		.thumb_func
  24              		.type	getDMXPersonality, %function
  25              	getDMXPersonality:
  26              	.LFB2:
  27              		.file 1 "pids.c"
   1:pids.c        **** /*
   2:pids.c        **** 
   3:pids.c        ****     pids.c
   4:pids.c        ****     *****************************************************************************
   5:pids.c        ****     * Copyright (2019 - 2020) The NED Group
   6:pids.c        ****     ******************************************************************************
   7:pids.c        ****     see main.c for full disclaimer
   8:pids.c        ****     
   9:pids.c        **** */
  10:pids.c        ****     
  11:pids.c        **** 
  12:pids.c        **** #include <stdio.h>
  13:pids.c        **** #include "main.h"
  14:pids.c        **** #include "pids.h"
  15:pids.c        **** #include "rdm.h"
  16:pids.c        **** #include "queue.h"
  17:pids.c        **** #include "rdmESTA.h"
  18:pids.c        **** 
  19:pids.c        **** 
  20:pids.c        **** extern structDeviceInfo DeviceInfo;
  21:pids.c        **** extern structRDM RDM;
  22:pids.c        **** extern structInfo Info;
  23:pids.c        **** 
  24:pids.c        **** extern bool blSaveToInfo;
  25:pids.c        **** extern bool blSaveToRDM;
  26:pids.c        **** 
  27:pids.c        **** bool getQueuedMessage(structRDMPacket *, PACKET_DEST);
  28:pids.c        **** 
  29:pids.c        **** bool getDMXPersonality(structRDMPacket *, PACKET_DEST);
  30:pids.c        **** bool setDMXPersonality(structRDMPacket *, PACKET_DEST);
ARM GAS  C:\Users\jimvr\AppData\Local\Temp\cc51sMLj.s 			page 2


  31:pids.c        **** bool getDMXPersonalityDescription(structRDMPacket *, PACKET_DEST);
  32:pids.c        **** 
  33:pids.c        **** bool getDeviceLabel(structRDMPacket *, PACKET_DEST);
  34:pids.c        **** bool setDeviceLabel(structRDMPacket *, PACKET_DEST);
  35:pids.c        **** 
  36:pids.c        **** bool getDeviceModelDescription(structRDMPacket *, PACKET_DEST);
  37:pids.c        **** 
  38:pids.c        **** bool getManufacturerLabel(structRDMPacket *, PACKET_DEST);
  39:pids.c        **** 
  40:pids.c        **** bool getDMXStartAddress(structRDMPacket *, PACKET_DEST);
  41:pids.c        **** bool setDMXStartAddress(structRDMPacket *, PACKET_DEST);
  42:pids.c        **** 
  43:pids.c        **** bool setSetUID(structRDMPacket *, PACKET_DEST);
  44:pids.c        **** 
  45:pids.c        **** /* ADD PROTOTYPE FOR CUSTOM PID REQUEST HANDLER
  46:pids.c        **** bool getCustomPid(structRDMPacket *, PACKET_DEST);
  47:pids.c        **** */
  48:pids.c        **** 
  49:pids.c        **** const structRDMParameter RDMPIDStore[] =
  50:pids.c        **** {
  51:pids.c        **** 	{
  52:pids.c        **** 		.uiParameterID = E120_QUEUED_MESSAGE,
  53:pids.c        **** 		.byGetLength = 1,
  54:pids.c        **** 		.bySetLength = 0,
  55:pids.c        **** 		.getRequestHandler = getQueuedMessage,
  56:pids.c        **** 		.setRequestHandler = NULL,
  57:pids.c        **** 	},
  58:pids.c        ****     {
  59:pids.c        **** 		.uiParameterID = E120_DMX_PERSONALITY,
  60:pids.c        **** 		.byGetLength = 0,
  61:pids.c        **** 		.bySetLength = 1,
  62:pids.c        **** 		.getRequestHandler = getDMXPersonality,
  63:pids.c        **** 		.setRequestHandler = setDMXPersonality,
  64:pids.c        **** 	},
  65:pids.c        **** 	{
  66:pids.c        **** 		.uiParameterID = E120_DMX_PERSONALITY_DESCRIPTION,
  67:pids.c        **** 		.byGetLength = 1,
  68:pids.c        **** 		.bySetLength = 0,
  69:pids.c        **** 		.getRequestHandler = getDMXPersonalityDescription,
  70:pids.c        **** 		.setRequestHandler = NULL,
  71:pids.c        **** 	},
  72:pids.c        **** 	{
  73:pids.c        **** 		.uiParameterID = E120_DEVICE_LABEL,
  74:pids.c        **** 		.byGetLength = 0,
  75:pids.c        **** 		.bySetLength = 33,
  76:pids.c        **** 		.getRequestHandler = getDeviceLabel,
  77:pids.c        **** 		.setRequestHandler = setDeviceLabel,
  78:pids.c        **** 		.blIsText = true,
  79:pids.c        **** 	},
  80:pids.c        **** 	{
  81:pids.c        **** 		.uiParameterID = E120_DEVICE_MODEL_DESCRIPTION,
  82:pids.c        **** 		.byGetLength = 0,
  83:pids.c        **** 		.bySetLength = 0,
  84:pids.c        **** 		.getRequestHandler = getDeviceModelDescription,
  85:pids.c        **** 		.setRequestHandler = NULL,
  86:pids.c        **** 		.blIsText = true,
  87:pids.c        **** 	},
ARM GAS  C:\Users\jimvr\AppData\Local\Temp\cc51sMLj.s 			page 3


  88:pids.c        **** 	{
  89:pids.c        **** 		.uiParameterID = E120_MANUFACTURER_LABEL,
  90:pids.c        **** 		.byGetLength = 0,
  91:pids.c        **** 		.bySetLength = 0,
  92:pids.c        **** 		.getRequestHandler = getManufacturerLabel,
  93:pids.c        **** 		.setRequestHandler = NULL,
  94:pids.c        **** 		.blIsText = true,
  95:pids.c        **** 	},
  96:pids.c        **** 	{
  97:pids.c        **** 		.uiParameterID = E120_DMX_START_ADDRESS,
  98:pids.c        **** 		.byGetLength = 0,
  99:pids.c        **** 		.bySetLength = 2,
 100:pids.c        **** 		.getRequestHandler = getDMXStartAddress,
 101:pids.c        **** 		.setRequestHandler = setDMXStartAddress,
 102:pids.c        **** 		.blIsHidden = true,
 103:pids.c        **** 	},
 104:pids.c        **** 	{
 105:pids.c        ****     	.uiParameterID = _RDM_UID,
 106:pids.c        ****     	.byGetLength = 0,
 107:pids.c        ****     	.bySetLength = 4,
 108:pids.c        ****     	.blIsHidden = true,
 109:pids.c        ****     	.getRequestHandler = NULL,
 110:pids.c        ****     	.setRequestHandler = setSetUID,
 111:pids.c        ****     },
 112:pids.c        ****     
 113:pids.c        **** 	/* ADD DEFINITION OF CUSTOM PID
 114:pids.c        **** 	Required: Required to function correctly.
 115:pids.c        **** 	Manufacturer: Required by SUPPORTED_PARAMETERS. Used for manufacturer defined PIDs.
 116:pids.c        **** 	{
 117:pids.c        **** 		.uiParameterID = NED_CUSTOM_PID,			Required		PID defined in pid.h.
 118:pids.c        **** 		.strDesc = "Dummy PID",						Manufacturer	PID description (Max 32 chars).												
 119:pids.c        **** 		.ulMinValue = 0,							Manufacturer	Minimum return value.
 120:pids.c        **** 		.ulMaxValue = 1,							Manufacturer	Maximum return value.
 121:pids.c        **** 		.ulDefValue = 0,							Manufacturer	Default return value.
 122:pids.c        **** 		.byDataType = 0,							Manufacturer	Data type (defined in RDM standard SUPPORTED_PARAMETERS).
 123:pids.c        **** 		.byUnits = 0,								Manufacturer	Units (defined in RDM standard SUPPORTED_PARAMETERS).
 124:pids.c        **** 		.byPrefix = 0,								Manufacturer	Prefix (defined in RDM standard SUPPORTED_PARAMETERS).
 125:pids.c        **** 		.byGetLength = 0,							Required		Expected length of GET request.
 126:pids.c        **** 		.bySetLength = 4,							Required		Expected length of SET request.
 127:pids.c        **** 		.getRequestHandler = getCustomPid,			Required		Function pointer to GET request handler. Set to NU
 128:pids.c        **** 		.setRequestHandler = NULL,					Required		Function pointer to SET request handler. Set to NULL if 
 129:pids.c        **** 	},
 130:pids.c        **** 	*/
 131:pids.c        **** };
 132:pids.c        **** const uint8 RDMPIDStoreLength = sizeof(RDMPIDStore)/sizeof(RDMPIDStore[0]);
 133:pids.c        **** 
 134:pids.c        **** structDMXPersonality dmxPtys[] =
 135:pids.c        **** {
 136:pids.c        **** 	{
 137:pids.c        **** 		.uiSlotCount = 6,
 138:pids.c        **** 		.cDesc = "6ch 8Bit",
 139:pids.c        **** 	},
 140:pids.c        **** 	{
 141:pids.c        **** 		.uiSlotCount = 12,
 142:pids.c        **** 		.cDesc = "6ch 16Bit",
 143:pids.c        **** 	},
 144:pids.c        ****    	{
ARM GAS  C:\Users\jimvr\AppData\Local\Temp\cc51sMLj.s 			page 4


 145:pids.c        **** 		.uiSlotCount = 1,
 146:pids.c        **** 		.cDesc = "1ch 8Bit",
 147:pids.c        **** 	},
 148:pids.c        ****    	{
 149:pids.c        **** 		.uiSlotCount = 2,
 150:pids.c        **** 		.cDesc = "1ch 16Bit",
 151:pids.c        **** 	}
 152:pids.c        **** };
 153:pids.c        **** 
 154:pids.c        **** bool getQueuedMessage(structRDMPacket *RDMPacket, PACKET_DEST Dest)
 155:pids.c        **** {
 156:pids.c        ****    	if(Dest) {} //To prevent warning. Will compile to NO-OP.
 157:pids.c        **** 	if(!queue_count())
 158:pids.c        **** 	{
 159:pids.c        **** 		RDMPacket->uiParameterID = CYSWAP_ENDIAN16(E120_STATUS_MESSAGES);
 160:pids.c        **** 		RDMPacket->byParameterLength = 0;
 161:pids.c        **** 	}
 162:pids.c        **** 	else
 163:pids.c        **** 	{
 164:pids.c        **** 		const structQueueItem QI = queue_front();
 165:pids.c        **** 		RDMPacket->uiParameterID = QI.uiParameterID;
 166:pids.c        **** 		RDMPacket->byCommandClass = QI.byCommandClass;
 167:pids.c        **** 		memcpy(RDMPacket->byParameterData, QI.byParameterData, QI.byParameterLength);
 168:pids.c        **** 		RDMPacket->byParameterLength = QI.byParameterLength;
 169:pids.c        **** 	}
 170:pids.c        **** 	return true;
 171:pids.c        **** }
 172:pids.c        **** 
 173:pids.c        **** bool getDMXPersonality(structRDMPacket *RDMPacket, PACKET_DEST Dest)
 174:pids.c        **** {
  28              		.loc 1 174 0
  29              		.cfi_startproc
  30              		@ args = 0, pretend = 0, frame = 0
  31              		@ frame_needed = 0, uses_anonymous_args = 0
  32              		@ link register save eliminated.
  33              	.LVL0:
 175:pids.c        **** 	if(Dest) {} //To prevent warning. Will compile to NO-OP.
 176:pids.c        **** 	RDMPacket->byParameterData[0] = RDM.stRDMPersonality;
  34              		.loc 1 176 0
  35 0000 044B     		ldr	r3, .L2
  36 0002 1B7A     		ldrb	r3, [r3, #8]	@ zero_extendqisi2
  37 0004 0376     		strb	r3, [r0, #24]
 177:pids.c        **** 	RDMPacket->byParameterData[1] = _RDM_PERSONALITY_COUNT - 1;
  38              		.loc 1 177 0
  39 0006 0423     		movs	r3, #4
  40 0008 4376     		strb	r3, [r0, #25]
 178:pids.c        **** 	RDMPacket->byParameterLength = 2;
  41              		.loc 1 178 0
  42 000a 0223     		movs	r3, #2
  43 000c C375     		strb	r3, [r0, #23]
 179:pids.c        **** 	return true;
 180:pids.c        **** }
  44              		.loc 1 180 0
  45 000e 0120     		movs	r0, #1
  46              	.LVL1:
  47 0010 7047     		bx	lr
  48              	.L3:
ARM GAS  C:\Users\jimvr\AppData\Local\Temp\cc51sMLj.s 			page 5


  49 0012 00BF     		.align	2
  50              	.L2:
  51 0014 00000000 		.word	RDM
  52              		.cfi_endproc
  53              	.LFE2:
  54              		.size	getDMXPersonality, .-getDMXPersonality
  55              		.section	.text.getDMXStartAddress,"ax",%progbits
  56              		.align	1
  57              		.global	getDMXStartAddress
  58              		.thumb
  59              		.thumb_func
  60              		.type	getDMXStartAddress, %function
  61              	getDMXStartAddress:
  62              	.LFB9:
 181:pids.c        **** 
 182:pids.c        **** bool setDMXPersonality(structRDMPacket *RDMPacket, PACKET_DEST Dest)
 183:pids.c        **** {
 184:pids.c        **** 	if(Dest == DEVICE)
 185:pids.c        **** 	{
 186:pids.c        **** 		uint8 Personality = RDMPacket->byParameterData[0] - 1;
 187:pids.c        **** 		if(Personality < _RDM_PERSONALITY_COUNT - 1)
 188:pids.c        **** 		{
 189:pids.c        **** 			RDM.stRDMPersonality = Personality + 1;
 190:pids.c        **** 			DeviceInfo.uiDMXFootprint = CYSWAP_ENDIAN16(dmxPtys[Personality].uiSlotCount);
 191:pids.c        **** 			DeviceInfo.uiDMXPersonality = CYSWAP_ENDIAN16(UINT8_TO_UINT16(Personality + 1, _RDM_PERSONALITY_
 192:pids.c        **** 	        
 193:pids.c        **** 			RDMPacket->byParameterLength = 0;
 194:pids.c        **** 			blSaveToInfo = true;
 195:pids.c        **** 			blSaveToRDM = true;
 196:pids.c        **** 			
 197:pids.c        **** 			RDM_RespondTimer(RDMPacket, 50);
 198:pids.c        **** 			queue_enqueue(E120_DMX_PERSONALITY, E120_SET_COMMAND, NULL, 0);
 199:pids.c        **** 		}
 200:pids.c        **** 		else
 201:pids.c        **** 		{
 202:pids.c        **** 			RDM_RespondNACK(RDMPacket, E120_NR_DATA_OUT_OF_RANGE);
 203:pids.c        **** 		}
 204:pids.c        **** 	}
 205:pids.c        **** 	return false;
 206:pids.c        **** }
 207:pids.c        **** 
 208:pids.c        **** bool getDMXPersonalityDescription(structRDMPacket *RDMPacket, PACKET_DEST Dest)
 209:pids.c        **** {
 210:pids.c        **** 	uint8 Personality = RDMPacket->byParameterData[0];
 211:pids.c        **** 	if(Personality >= 1 && Personality <= sizeof(dmxPtys)/sizeof(dmxPtys[0]))
 212:pids.c        **** 	{
 213:pids.c        **** 		RDMPacket->byParameterData[1] = HI8(dmxPtys[Personality-1].uiSlotCount);
 214:pids.c        **** 		RDMPacket->byParameterData[2] = LO8(dmxPtys[Personality-1].uiSlotCount);
 215:pids.c        **** 		memcpy(&RDMPacket->byParameterData[3], dmxPtys[Personality-1].cDesc, strlen(dmxPtys[Personality-1
 216:pids.c        **** 		RDMPacket->byParameterLength = 3+strlen(dmxPtys[Personality-1].cDesc);
 217:pids.c        **** 		return true;
 218:pids.c        **** 	}
 219:pids.c        **** 	else if(Dest == DEVICE)
 220:pids.c        **** 	{
 221:pids.c        **** 		RDM_RespondNACK(RDMPacket, E120_NR_DATA_OUT_OF_RANGE);
 222:pids.c        **** 		return false;
 223:pids.c        **** 	}
ARM GAS  C:\Users\jimvr\AppData\Local\Temp\cc51sMLj.s 			page 6


 224:pids.c        **** 	return false;
 225:pids.c        **** }
 226:pids.c        **** 
 227:pids.c        **** bool getDeviceLabel(structRDMPacket *RDMPacket, PACKET_DEST Dest)
 228:pids.c        **** {
 229:pids.c        **** 	if(Dest) {} //To prevent warning. Will compile to NO-OP.
 230:pids.c        ****     memcpy(RDMPacket->byParameterData, RDM.stRDMIdentity, strlen((char *)RDM.stRDMIdentity));
 231:pids.c        **** 	RDMPacket->byParameterLength = strlen((char *)RDM.stRDMIdentity);
 232:pids.c        **** 	return true;
 233:pids.c        **** }
 234:pids.c        **** 
 235:pids.c        **** bool setDeviceLabel(structRDMPacket *RDMPacket, PACKET_DEST Dest)
 236:pids.c        **** {
 237:pids.c        **** 	if(Dest == DEVICE)
 238:pids.c        **** 	{
 239:pids.c        ****         memset(RDM.stRDMIdentity, 0, sizeof(RDM.stRDMIdentity));
 240:pids.c        ****     	memcpy(RDM.stRDMIdentity, RDMPacket->byParameterData, RDMPacket->byParameterLength);
 241:pids.c        ****     	RDMPacket->byParameterLength = 0;
 242:pids.c        ****     	blSaveToRDM = true;
 243:pids.c        ****         
 244:pids.c        ****         RDM_RespondTimer(RDMPacket, 50);
 245:pids.c        **** 		queue_enqueue(E120_DEVICE_LABEL, E120_SET_COMMAND, NULL, 0);
 246:pids.c        **** 	}
 247:pids.c        **** 	return false;
 248:pids.c        **** }
 249:pids.c        **** 
 250:pids.c        **** bool getDeviceModelDescription(structRDMPacket *RDMPacket, PACKET_DEST Dest)
 251:pids.c        **** {
 252:pids.c        **** 	if(Dest) {} //To prevent warning. Will compile to NO-OP.
 253:pids.c        ****     memcpy(RDMPacket->byParameterData, RDM.stRDMModel, strlen((char *)RDM.stRDMModel));
 254:pids.c        **** 	RDMPacket->byParameterLength = strlen((char *)RDM.stRDMModel);
 255:pids.c        **** 	return true;
 256:pids.c        **** }
 257:pids.c        **** 
 258:pids.c        **** bool getManufacturerLabel(structRDMPacket *RDMPacket, PACKET_DEST Dest)
 259:pids.c        **** {
 260:pids.c        **** 	if(Dest) {} //To prevent warning. Will compile to NO-OP.
 261:pids.c        ****     memcpy(RDMPacket->byParameterData, RDM.stRDMManufacturer, strlen((char *)RDM.stRDMManufacturer)
 262:pids.c        **** 	RDMPacket->byParameterLength = strlen((char *)RDM.stRDMManufacturer);
 263:pids.c        **** 	return true;
 264:pids.c        **** }
 265:pids.c        **** 
 266:pids.c        **** bool getDMXStartAddress(structRDMPacket *RDMPacket, PACKET_DEST Dest)
 267:pids.c        **** {
  63              		.loc 1 267 0
  64              		.cfi_startproc
  65              		@ args = 0, pretend = 0, frame = 0
  66              		@ frame_needed = 0, uses_anonymous_args = 0
  67              		@ link register save eliminated.
  68              	.LVL2:
 268:pids.c        **** 	if(Dest) {} //To prevent warning. Will compile to NO-OP.
 269:pids.c        **** 	
 270:pids.c        ****     RDMPacket->byParameterData[0] = HI8(Info.uiDMXChannel[0]);
  69              		.loc 1 270 0
  70 0000 044B     		ldr	r3, .L5
  71 0002 1B88     		ldrh	r3, [r3]	@ unaligned
  72 0004 1A0A     		lsrs	r2, r3, #8
ARM GAS  C:\Users\jimvr\AppData\Local\Temp\cc51sMLj.s 			page 7


 271:pids.c        **** 	RDMPacket->byParameterData[1] = LO8(Info.uiDMXChannel[0]);
  73              		.loc 1 271 0
  74 0006 4376     		strb	r3, [r0, #25]
 272:pids.c        **** 	RDMPacket->byParameterLength = 2;
  75              		.loc 1 272 0
  76 0008 0223     		movs	r3, #2
 270:pids.c        **** 	RDMPacket->byParameterData[1] = LO8(Info.uiDMXChannel[0]);
  77              		.loc 1 270 0
  78 000a 0276     		strb	r2, [r0, #24]
  79              		.loc 1 272 0
  80 000c C375     		strb	r3, [r0, #23]
 273:pids.c        **** 	return true;
 274:pids.c        **** }
  81              		.loc 1 274 0
  82 000e 0120     		movs	r0, #1
  83              	.LVL3:
  84 0010 7047     		bx	lr
  85              	.L6:
  86 0012 00BF     		.align	2
  87              	.L5:
  88 0014 00000000 		.word	Info
  89              		.cfi_endproc
  90              	.LFE9:
  91              		.size	getDMXStartAddress, .-getDMXStartAddress
  92              		.section	.text.getDMXPersonalityDescription,"ax",%progbits
  93              		.align	1
  94              		.global	getDMXPersonalityDescription
  95              		.thumb
  96              		.thumb_func
  97              		.type	getDMXPersonalityDescription, %function
  98              	getDMXPersonalityDescription:
  99              	.LFB4:
 209:pids.c        **** 	uint8 Personality = RDMPacket->byParameterData[0];
 100              		.loc 1 209 0
 101              		.cfi_startproc
 102              		@ args = 0, pretend = 0, frame = 0
 103              		@ frame_needed = 0, uses_anonymous_args = 0
 104              	.LVL4:
 105 0000 70B5     		push	{r4, r5, r6, lr}
 106              		.cfi_def_cfa_offset 16
 107              		.cfi_offset 4, -16
 108              		.cfi_offset 5, -12
 109              		.cfi_offset 6, -8
 110              		.cfi_offset 14, -4
 210:pids.c        **** 	if(Personality >= 1 && Personality <= sizeof(dmxPtys)/sizeof(dmxPtys[0]))
 111              		.loc 1 210 0
 112 0002 057E     		ldrb	r5, [r0, #24]	@ zero_extendqisi2
 113              	.LVL5:
 209:pids.c        **** 	uint8 Personality = RDMPacket->byParameterData[0];
 114              		.loc 1 209 0
 115 0004 0446     		mov	r4, r0
 211:pids.c        **** 	{
 116              		.loc 1 211 0
 117 0006 013D     		subs	r5, r5, #1
 118              	.LVL6:
 119 0008 EBB2     		uxtb	r3, r5
 120 000a 032B     		cmp	r3, #3
ARM GAS  C:\Users\jimvr\AppData\Local\Temp\cc51sMLj.s 			page 8


 121 000c 18D8     		bhi	.L8
 122              	.LBB6:
 213:pids.c        **** 		RDMPacket->byParameterData[2] = LO8(dmxPtys[Personality-1].uiSlotCount);
 123              		.loc 1 213 0
 124 000e 104B     		ldr	r3, .L12
 125 0010 33F83520 		ldrh	r2, [r3, r5, lsl #3]
 215:pids.c        **** 		RDMPacket->byParameterLength = 3+strlen(dmxPtys[Personality-1].cDesc);
 126              		.loc 1 215 0
 127 0014 03EBC505 		add	r5, r3, r5, lsl #3
 128              	.LVL7:
 213:pids.c        **** 		RDMPacket->byParameterData[2] = LO8(dmxPtys[Personality-1].uiSlotCount);
 129              		.loc 1 213 0
 130 0018 110A     		lsrs	r1, r2, #8
 131              	.LVL8:
 132 001a 4176     		strb	r1, [r0, #25]
 214:pids.c        **** 		memcpy(&RDMPacket->byParameterData[3], dmxPtys[Personality-1].cDesc, strlen(dmxPtys[Personality-1
 133              		.loc 1 214 0
 134 001c 8276     		strb	r2, [r0, #26]
 215:pids.c        **** 		RDMPacket->byParameterLength = 3+strlen(dmxPtys[Personality-1].cDesc);
 135              		.loc 1 215 0
 136 001e 6E68     		ldr	r6, [r5, #4]
 137 0020 3046     		mov	r0, r6
 138              	.LVL9:
 139 0022 FFF7FEFF 		bl	strlen
 140              	.LVL10:
 141 0026 3146     		mov	r1, r6
 142 0028 0246     		mov	r2, r0
 143 002a 04F11B00 		add	r0, r4, #27
 144 002e FFF7FEFF 		bl	memcpy
 145              	.LVL11:
 216:pids.c        **** 		return true;
 146              		.loc 1 216 0
 147 0032 6868     		ldr	r0, [r5, #4]
 148 0034 FFF7FEFF 		bl	strlen
 149              	.LVL12:
 150 0038 0330     		adds	r0, r0, #3
 151 003a E075     		strb	r0, [r4, #23]
 217:pids.c        **** 	}
 152              		.loc 1 217 0
 153 003c 0120     		movs	r0, #1
 154 003e 70BD     		pop	{r4, r5, r6, pc}
 155              	.LVL13:
 156              	.L8:
 157              	.LBE6:
 219:pids.c        **** 	{
 158              		.loc 1 219 0
 159 0040 0129     		cmp	r1, #1
 160 0042 02D1     		bne	.L10
 221:pids.c        **** 		return false;
 161              		.loc 1 221 0
 162 0044 0621     		movs	r1, #6
 163              	.LVL14:
 164 0046 FFF7FEFF 		bl	RDM_RespondNACK
 165              	.LVL15:
 166              	.L10:
 224:pids.c        **** }
 167              		.loc 1 224 0
ARM GAS  C:\Users\jimvr\AppData\Local\Temp\cc51sMLj.s 			page 9


 168 004a 0020     		movs	r0, #0
 225:pids.c        **** 
 169              		.loc 1 225 0
 170 004c 70BD     		pop	{r4, r5, r6, pc}
 171              	.LVL16:
 172              	.L13:
 173 004e 00BF     		.align	2
 174              	.L12:
 175 0050 00000000 		.word	.LANCHOR0
 176              		.cfi_endproc
 177              	.LFE4:
 178              		.size	getDMXPersonalityDescription, .-getDMXPersonalityDescription
 179              		.section	.text.getDeviceLabel,"ax",%progbits
 180              		.align	1
 181              		.global	getDeviceLabel
 182              		.thumb
 183              		.thumb_func
 184              		.type	getDeviceLabel, %function
 185              	getDeviceLabel:
 186              	.LFB5:
 228:pids.c        **** 	if(Dest) {} //To prevent warning. Will compile to NO-OP.
 187              		.loc 1 228 0
 188              		.cfi_startproc
 189              		@ args = 0, pretend = 0, frame = 0
 190              		@ frame_needed = 0, uses_anonymous_args = 0
 191              	.LVL17:
 192 0000 38B5     		push	{r3, r4, r5, lr}
 193              		.cfi_def_cfa_offset 16
 194              		.cfi_offset 3, -16
 195              		.cfi_offset 4, -12
 196              		.cfi_offset 5, -8
 197              		.cfi_offset 14, -4
 230:pids.c        **** 	RDMPacket->byParameterLength = strlen((char *)RDM.stRDMIdentity);
 198              		.loc 1 230 0
 199 0002 084C     		ldr	r4, .L15
 228:pids.c        **** 	if(Dest) {} //To prevent warning. Will compile to NO-OP.
 200              		.loc 1 228 0
 201 0004 0546     		mov	r5, r0
 230:pids.c        **** 	RDMPacket->byParameterLength = strlen((char *)RDM.stRDMIdentity);
 202              		.loc 1 230 0
 203 0006 2046     		mov	r0, r4
 204              	.LVL18:
 205 0008 FFF7FEFF 		bl	strlen
 206              	.LVL19:
 207 000c 2146     		mov	r1, r4
 208 000e 0246     		mov	r2, r0
 209 0010 05F11800 		add	r0, r5, #24
 210 0014 FFF7FEFF 		bl	memcpy
 211              	.LVL20:
 231:pids.c        **** 	return true;
 212              		.loc 1 231 0
 213 0018 2046     		mov	r0, r4
 214 001a FFF7FEFF 		bl	strlen
 215              	.LVL21:
 216 001e E875     		strb	r0, [r5, #23]
 233:pids.c        **** 
 217              		.loc 1 233 0
ARM GAS  C:\Users\jimvr\AppData\Local\Temp\cc51sMLj.s 			page 10


 218 0020 0120     		movs	r0, #1
 219 0022 38BD     		pop	{r3, r4, r5, pc}
 220              	.LVL22:
 221              	.L16:
 222              		.align	2
 223              	.L15:
 224 0024 09000000 		.word	RDM+9
 225              		.cfi_endproc
 226              	.LFE5:
 227              		.size	getDeviceLabel, .-getDeviceLabel
 228              		.section	.text.getDeviceModelDescription,"ax",%progbits
 229              		.align	1
 230              		.global	getDeviceModelDescription
 231              		.thumb
 232              		.thumb_func
 233              		.type	getDeviceModelDescription, %function
 234              	getDeviceModelDescription:
 235              	.LFB7:
 251:pids.c        **** 	if(Dest) {} //To prevent warning. Will compile to NO-OP.
 236              		.loc 1 251 0
 237              		.cfi_startproc
 238              		@ args = 0, pretend = 0, frame = 0
 239              		@ frame_needed = 0, uses_anonymous_args = 0
 240              	.LVL23:
 241 0000 38B5     		push	{r3, r4, r5, lr}
 242              		.cfi_def_cfa_offset 16
 243              		.cfi_offset 3, -16
 244              		.cfi_offset 4, -12
 245              		.cfi_offset 5, -8
 246              		.cfi_offset 14, -4
 253:pids.c        **** 	RDMPacket->byParameterLength = strlen((char *)RDM.stRDMModel);
 247              		.loc 1 253 0
 248 0002 084C     		ldr	r4, .L18
 251:pids.c        **** 	if(Dest) {} //To prevent warning. Will compile to NO-OP.
 249              		.loc 1 251 0
 250 0004 0546     		mov	r5, r0
 253:pids.c        **** 	RDMPacket->byParameterLength = strlen((char *)RDM.stRDMModel);
 251              		.loc 1 253 0
 252 0006 2046     		mov	r0, r4
 253              	.LVL24:
 254 0008 FFF7FEFF 		bl	strlen
 255              	.LVL25:
 256 000c 2146     		mov	r1, r4
 257 000e 0246     		mov	r2, r0
 258 0010 05F11800 		add	r0, r5, #24
 259 0014 FFF7FEFF 		bl	memcpy
 260              	.LVL26:
 254:pids.c        **** 	return true;
 261              		.loc 1 254 0
 262 0018 2046     		mov	r0, r4
 263 001a FFF7FEFF 		bl	strlen
 264              	.LVL27:
 265 001e E875     		strb	r0, [r5, #23]
 256:pids.c        **** 
 266              		.loc 1 256 0
 267 0020 0120     		movs	r0, #1
 268 0022 38BD     		pop	{r3, r4, r5, pc}
ARM GAS  C:\Users\jimvr\AppData\Local\Temp\cc51sMLj.s 			page 11


 269              	.LVL28:
 270              	.L19:
 271              		.align	2
 272              	.L18:
 273 0024 4B000000 		.word	RDM+75
 274              		.cfi_endproc
 275              	.LFE7:
 276              		.size	getDeviceModelDescription, .-getDeviceModelDescription
 277              		.section	.text.getManufacturerLabel,"ax",%progbits
 278              		.align	1
 279              		.global	getManufacturerLabel
 280              		.thumb
 281              		.thumb_func
 282              		.type	getManufacturerLabel, %function
 283              	getManufacturerLabel:
 284              	.LFB8:
 259:pids.c        **** 	if(Dest) {} //To prevent warning. Will compile to NO-OP.
 285              		.loc 1 259 0
 286              		.cfi_startproc
 287              		@ args = 0, pretend = 0, frame = 0
 288              		@ frame_needed = 0, uses_anonymous_args = 0
 289              	.LVL29:
 290 0000 38B5     		push	{r3, r4, r5, lr}
 291              		.cfi_def_cfa_offset 16
 292              		.cfi_offset 3, -16
 293              		.cfi_offset 4, -12
 294              		.cfi_offset 5, -8
 295              		.cfi_offset 14, -4
 261:pids.c        **** 	RDMPacket->byParameterLength = strlen((char *)RDM.stRDMManufacturer);
 296              		.loc 1 261 0
 297 0002 084C     		ldr	r4, .L21
 259:pids.c        **** 	if(Dest) {} //To prevent warning. Will compile to NO-OP.
 298              		.loc 1 259 0
 299 0004 0546     		mov	r5, r0
 261:pids.c        **** 	RDMPacket->byParameterLength = strlen((char *)RDM.stRDMManufacturer);
 300              		.loc 1 261 0
 301 0006 2046     		mov	r0, r4
 302              	.LVL30:
 303 0008 FFF7FEFF 		bl	strlen
 304              	.LVL31:
 305 000c 2146     		mov	r1, r4
 306 000e 0246     		mov	r2, r0
 307 0010 05F11800 		add	r0, r5, #24
 308 0014 FFF7FEFF 		bl	memcpy
 309              	.LVL32:
 262:pids.c        **** 	return true;
 310              		.loc 1 262 0
 311 0018 2046     		mov	r0, r4
 312 001a FFF7FEFF 		bl	strlen
 313              	.LVL33:
 314 001e E875     		strb	r0, [r5, #23]
 264:pids.c        **** 
 315              		.loc 1 264 0
 316 0020 0120     		movs	r0, #1
 317 0022 38BD     		pop	{r3, r4, r5, pc}
 318              	.LVL34:
 319              	.L22:
ARM GAS  C:\Users\jimvr\AppData\Local\Temp\cc51sMLj.s 			page 12


 320              		.align	2
 321              	.L21:
 322 0024 2A000000 		.word	RDM+42
 323              		.cfi_endproc
 324              	.LFE8:
 325              		.size	getManufacturerLabel, .-getManufacturerLabel
 326              		.section	.text.getQueuedMessage,"ax",%progbits
 327              		.align	1
 328              		.global	getQueuedMessage
 329              		.thumb
 330              		.thumb_func
 331              		.type	getQueuedMessage, %function
 332              	getQueuedMessage:
 333              	.LFB1:
 155:pids.c        ****    	if(Dest) {} //To prevent warning. Will compile to NO-OP.
 334              		.loc 1 155 0
 335              		.cfi_startproc
 336              		@ args = 0, pretend = 0, frame = 8
 337              		@ frame_needed = 0, uses_anonymous_args = 0
 338              	.LVL35:
 339 0000 37B5     		push	{r0, r1, r2, r4, r5, lr}
 340              		.cfi_def_cfa_offset 24
 341              		.cfi_offset 4, -12
 342              		.cfi_offset 5, -8
 343              		.cfi_offset 14, -4
 155:pids.c        ****    	if(Dest) {} //To prevent warning. Will compile to NO-OP.
 344              		.loc 1 155 0
 345 0002 0446     		mov	r4, r0
 157:pids.c        **** 	{
 346              		.loc 1 157 0
 347 0004 FFF7FEFF 		bl	queue_count
 348              	.LVL36:
 349 0008 20B9     		cbnz	r0, .L24
 159:pids.c        **** 		RDMPacket->byParameterLength = 0;
 350              		.loc 1 159 0
 351 000a 3023     		movs	r3, #48
 352 000c 6075     		strb	r0, [r4, #21]
 353 000e A375     		strb	r3, [r4, #22]
 160:pids.c        **** 	}
 354              		.loc 1 160 0
 355 0010 E075     		strb	r0, [r4, #23]
 356 0012 12E0     		b	.L25
 357              	.L24:
 358              	.LVL37:
 359              	.LBB11:
 360              	.LBB12:
 164:pids.c        **** 		RDMPacket->uiParameterID = QI.uiParameterID;
 361              		.loc 1 164 0
 362 0014 6846     		mov	r0, sp
 363 0016 FFF7FEFF 		bl	queue_front
 364              	.LVL38:
 165:pids.c        **** 		RDMPacket->byCommandClass = QI.byCommandClass;
 365              		.loc 1 165 0
 366 001a BDF80030 		ldrh	r3, [sp]
 164:pids.c        **** 		RDMPacket->uiParameterID = QI.uiParameterID;
 367              		.loc 1 164 0
 368 001e 9DF80350 		ldrb	r5, [sp, #3]	@ zero_extendqisi2
ARM GAS  C:\Users\jimvr\AppData\Local\Temp\cc51sMLj.s 			page 13


 369              	.LVL39:
 165:pids.c        **** 		RDMPacket->byCommandClass = QI.byCommandClass;
 370              		.loc 1 165 0
 371 0022 A4F81530 		strh	r3, [r4, #21]	@ unaligned
 166:pids.c        **** 		memcpy(RDMPacket->byParameterData, QI.byParameterData, QI.byParameterLength);
 372              		.loc 1 166 0
 373 0026 9DF80230 		ldrb	r3, [sp, #2]	@ zero_extendqisi2
 167:pids.c        **** 		RDMPacket->byParameterLength = QI.byParameterLength;
 374              		.loc 1 167 0
 375 002a 2A46     		mov	r2, r5
 166:pids.c        **** 		memcpy(RDMPacket->byParameterData, QI.byParameterData, QI.byParameterLength);
 376              		.loc 1 166 0
 377 002c 2375     		strb	r3, [r4, #20]
 167:pids.c        **** 		RDMPacket->byParameterLength = QI.byParameterLength;
 378              		.loc 1 167 0
 379 002e 0199     		ldr	r1, [sp, #4]
 380 0030 04F11800 		add	r0, r4, #24
 381 0034 FFF7FEFF 		bl	memcpy
 382              	.LVL40:
 168:pids.c        **** 	}
 383              		.loc 1 168 0
 384 0038 E575     		strb	r5, [r4, #23]
 385              	.LVL41:
 386              	.L25:
 387              	.LBE12:
 388              	.LBE11:
 171:pids.c        **** 
 389              		.loc 1 171 0
 390 003a 0120     		movs	r0, #1
 391 003c 03B0     		add	sp, sp, #12
 392              		.cfi_def_cfa_offset 12
 393              		@ sp needed
 394 003e 30BD     		pop	{r4, r5, pc}
 395              		.cfi_endproc
 396              	.LFE1:
 397              		.size	getQueuedMessage, .-getQueuedMessage
 398              		.section	.text.setDMXPersonality,"ax",%progbits
 399              		.align	1
 400              		.global	setDMXPersonality
 401              		.thumb
 402              		.thumb_func
 403              		.type	setDMXPersonality, %function
 404              	setDMXPersonality:
 405              	.LFB3:
 183:pids.c        **** 	if(Dest == DEVICE)
 406              		.loc 1 183 0
 407              		.cfi_startproc
 408              		@ args = 0, pretend = 0, frame = 0
 409              		@ frame_needed = 0, uses_anonymous_args = 0
 410              	.LVL42:
 184:pids.c        **** 	{
 411              		.loc 1 184 0
 412 0000 0129     		cmp	r1, #1
 183:pids.c        **** 	if(Dest == DEVICE)
 413              		.loc 1 183 0
 414 0002 38B5     		push	{r3, r4, r5, lr}
 415              		.cfi_def_cfa_offset 16
ARM GAS  C:\Users\jimvr\AppData\Local\Temp\cc51sMLj.s 			page 14


 416              		.cfi_offset 3, -16
 417              		.cfi_offset 4, -12
 418              		.cfi_offset 5, -8
 419              		.cfi_offset 14, -4
 184:pids.c        **** 	{
 420              		.loc 1 184 0
 421 0004 23D1     		bne	.L27
 422              	.LVL43:
 423              	.LBB17:
 424              	.LBB18:
 186:pids.c        **** 		if(Personality < _RDM_PERSONALITY_COUNT - 1)
 425              		.loc 1 186 0
 426 0006 027E     		ldrb	r2, [r0, #24]	@ zero_extendqisi2
 427 0008 531E     		subs	r3, r2, #1
 428 000a DBB2     		uxtb	r3, r3
 429              	.LVL44:
 187:pids.c        **** 		{
 430              		.loc 1 187 0
 431 000c 032B     		cmp	r3, #3
 432 000e 1BD8     		bhi	.L28
 189:pids.c        **** 			DeviceInfo.uiDMXFootprint = CYSWAP_ENDIAN16(dmxPtys[Personality].uiSlotCount);
 433              		.loc 1 189 0
 434 0010 104C     		ldr	r4, .L29
 435 0012 2272     		strb	r2, [r4, #8]
 190:pids.c        **** 			DeviceInfo.uiDMXPersonality = CYSWAP_ENDIAN16(UINT8_TO_UINT16(Personality + 1, _RDM_PERSONALITY_
 436              		.loc 1 190 0
 437 0014 104A     		ldr	r2, .L29+4
 438 0016 114C     		ldr	r4, .L29+8
 439 0018 32F83320 		ldrh	r2, [r2, r3, lsl #3]
 191:pids.c        **** 	        
 440              		.loc 1 191 0
 441 001c 0133     		adds	r3, r3, #1
 442              	.LVL45:
 443 001e 43F48063 		orr	r3, r3, #1024
 444              	.LVL46:
 445 0022 A381     		strh	r3, [r4, #12]	@ unaligned
 194:pids.c        **** 			blSaveToRDM = true;
 446              		.loc 1 194 0
 447 0024 0E4B     		ldr	r3, .L29+12
 190:pids.c        **** 			DeviceInfo.uiDMXPersonality = CYSWAP_ENDIAN16(UINT8_TO_UINT16(Personality + 1, _RDM_PERSONALITY_
 448              		.loc 1 190 0
 449 0026 52BA     		rev16	r2, r2
 194:pids.c        **** 			blSaveToRDM = true;
 450              		.loc 1 194 0
 451 0028 1970     		strb	r1, [r3]
 195:pids.c        **** 			
 452              		.loc 1 195 0
 453 002a 0E4B     		ldr	r3, .L29+16
 190:pids.c        **** 			DeviceInfo.uiDMXPersonality = CYSWAP_ENDIAN16(UINT8_TO_UINT16(Personality + 1, _RDM_PERSONALITY_
 454              		.loc 1 190 0
 455 002c 6281     		strh	r2, [r4, #10]	@ unaligned
 193:pids.c        **** 			blSaveToInfo = true;
 456              		.loc 1 193 0
 457 002e 0024     		movs	r4, #0
 458 0030 C475     		strb	r4, [r0, #23]
 195:pids.c        **** 			
 459              		.loc 1 195 0
ARM GAS  C:\Users\jimvr\AppData\Local\Temp\cc51sMLj.s 			page 15


 460 0032 1970     		strb	r1, [r3]
 197:pids.c        **** 			queue_enqueue(E120_DMX_PERSONALITY, E120_SET_COMMAND, NULL, 0);
 461              		.loc 1 197 0
 462 0034 3221     		movs	r1, #50
 463              	.LVL47:
 464 0036 FFF7FEFF 		bl	RDM_RespondTimer
 465              	.LVL48:
 198:pids.c        **** 		}
 466              		.loc 1 198 0
 467 003a 2346     		mov	r3, r4
 468 003c 2246     		mov	r2, r4
 469 003e 3021     		movs	r1, #48
 470 0040 E020     		movs	r0, #224
 471 0042 FFF7FEFF 		bl	queue_enqueue
 472              	.LVL49:
 473 0046 02E0     		b	.L27
 474              	.LVL50:
 475              	.L28:
 202:pids.c        **** 		}
 476              		.loc 1 202 0
 477 0048 0621     		movs	r1, #6
 478              	.LVL51:
 479 004a FFF7FEFF 		bl	RDM_RespondNACK
 480              	.LVL52:
 481              	.L27:
 482              	.LBE18:
 483              	.LBE17:
 206:pids.c        **** 
 484              		.loc 1 206 0
 485 004e 0020     		movs	r0, #0
 486 0050 38BD     		pop	{r3, r4, r5, pc}
 487              	.L30:
 488 0052 00BF     		.align	2
 489              	.L29:
 490 0054 00000000 		.word	RDM
 491 0058 00000000 		.word	.LANCHOR0
 492 005c 00000000 		.word	DeviceInfo
 493 0060 00000000 		.word	blSaveToInfo
 494 0064 00000000 		.word	blSaveToRDM
 495              		.cfi_endproc
 496              	.LFE3:
 497              		.size	setDMXPersonality, .-setDMXPersonality
 498              		.section	.text.setDMXStartAddress,"ax",%progbits
 499              		.align	1
 500              		.global	setDMXStartAddress
 501              		.thumb
 502              		.thumb_func
 503              		.type	setDMXStartAddress, %function
 504              	setDMXStartAddress:
 505              	.LFB10:
 275:pids.c        **** 
 276:pids.c        **** bool setDMXStartAddress(structRDMPacket *RDMPacket, PACKET_DEST Dest)
 277:pids.c        **** {
 506              		.loc 1 277 0
 507              		.cfi_startproc
 508              		@ args = 0, pretend = 0, frame = 0
 509              		@ frame_needed = 0, uses_anonymous_args = 0
ARM GAS  C:\Users\jimvr\AppData\Local\Temp\cc51sMLj.s 			page 16


 510              	.LVL53:
 511 0000 10B5     		push	{r4, lr}
 512              		.cfi_def_cfa_offset 8
 513              		.cfi_offset 4, -8
 514              		.cfi_offset 14, -4
 278:pids.c        **** 	uint16 dmxAddress = UINT8_TO_UINT16(RDMPacket->byParameterData[0], RDMPacket->byParameterData[1]);
 515              		.loc 1 278 0
 516 0002 047E     		ldrb	r4, [r0, #24]	@ zero_extendqisi2
 517 0004 437E     		ldrb	r3, [r0, #25]	@ zero_extendqisi2
 518 0006 43EA0423 		orr	r3, r3, r4, lsl #8
 519              	.LVL54:
 279:pids.c        **** 	if(dmxAddress >= 1 && dmxAddress <= 512)
 520              		.loc 1 279 0
 521 000a 5C1E     		subs	r4, r3, #1
 522 000c B4F5007F 		cmp	r4, #512
 523 0010 15D2     		bcs	.L32
 280:pids.c        **** 	{
 281:pids.c        **** 		DeviceInfo.uiDMXStartAddress = CYSWAP_ENDIAN16(dmxAddress);
 524              		.loc 1 281 0
 525 0012 0E4C     		ldr	r4, .L36
 526 0014 5BBA     		rev16	r3, r3
 527              	.LVL55:
 282:pids.c        **** 		RDMPacket->byParameterLength = 0;
 283:pids.c        **** 		blSaveToInfo = true;
 528              		.loc 1 283 0
 529 0016 0E4A     		ldr	r2, .L36+4
 281:pids.c        **** 		RDMPacket->byParameterLength = 0;
 530              		.loc 1 281 0
 531 0018 E381     		strh	r3, [r4, #14]	@ unaligned
 532              		.loc 1 283 0
 533 001a 0123     		movs	r3, #1
 534 001c 1370     		strb	r3, [r2]
 284:pids.c        ****   		blSaveToRDM = true;
 535              		.loc 1 284 0
 536 001e 0D4A     		ldr	r2, .L36+8
 282:pids.c        **** 		RDMPacket->byParameterLength = 0;
 537              		.loc 1 282 0
 538 0020 0024     		movs	r4, #0
 285:pids.c        **** 
 286:pids.c        **** 		if(Dest == DEVICE)
 539              		.loc 1 286 0
 540 0022 9942     		cmp	r1, r3
 282:pids.c        **** 		blSaveToInfo = true;
 541              		.loc 1 282 0
 542 0024 C475     		strb	r4, [r0, #23]
 284:pids.c        ****   		blSaveToRDM = true;
 543              		.loc 1 284 0
 544 0026 1370     		strb	r3, [r2]
 545              		.loc 1 286 0
 546 0028 0ED1     		bne	.L34
 547              	.LVL56:
 548              	.LBB21:
 549              	.LBB22:
 287:pids.c        **** 		{
 288:pids.c        ****             RDM_RespondTimer(RDMPacket, 50);
 550              		.loc 1 288 0
 551 002a 3221     		movs	r1, #50
ARM GAS  C:\Users\jimvr\AppData\Local\Temp\cc51sMLj.s 			page 17


 552              	.LVL57:
 553 002c FFF7FEFF 		bl	RDM_RespondTimer
 554              	.LVL58:
 289:pids.c        **** 			queue_enqueue(E120_DMX_START_ADDRESS, E120_SET_COMMAND, NULL, 0);
 555              		.loc 1 289 0
 556 0030 2346     		mov	r3, r4
 557 0032 2246     		mov	r2, r4
 558 0034 3021     		movs	r1, #48
 559 0036 F020     		movs	r0, #240
 560 0038 FFF7FEFF 		bl	queue_enqueue
 561              	.LVL59:
 562 003c 04E0     		b	.L34
 563              	.LVL60:
 564              	.L32:
 565              	.LBE22:
 566              	.LBE21:
 290:pids.c        **** 		}
 291:pids.c        **** 		return false;
 292:pids.c        **** 	}
 293:pids.c        **** 	else if(Dest == DEVICE)
 567              		.loc 1 293 0
 568 003e 0129     		cmp	r1, #1
 569 0040 02D1     		bne	.L34
 294:pids.c        **** 	{
 295:pids.c        **** 		RDM_RespondNACK(RDMPacket, E120_NR_DATA_OUT_OF_RANGE);
 570              		.loc 1 295 0
 571 0042 0621     		movs	r1, #6
 572              	.LVL61:
 573 0044 FFF7FEFF 		bl	RDM_RespondNACK
 574              	.LVL62:
 575              	.L34:
 296:pids.c        **** 		return false;
 297:pids.c        **** 	}
 298:pids.c        **** 	return false;
 299:pids.c        **** }
 576              		.loc 1 299 0
 577 0048 0020     		movs	r0, #0
 578 004a 10BD     		pop	{r4, pc}
 579              	.L37:
 580              		.align	2
 581              	.L36:
 582 004c 00000000 		.word	DeviceInfo
 583 0050 00000000 		.word	blSaveToInfo
 584 0054 00000000 		.word	blSaveToRDM
 585              		.cfi_endproc
 586              	.LFE10:
 587              		.size	setDMXStartAddress, .-setDMXStartAddress
 588              		.section	.text.setDeviceLabel,"ax",%progbits
 589              		.align	1
 590              		.global	setDeviceLabel
 591              		.thumb
 592              		.thumb_func
 593              		.type	setDeviceLabel, %function
 594              	setDeviceLabel:
 595              	.LFB6:
 236:pids.c        **** 	if(Dest == DEVICE)
 596              		.loc 1 236 0
ARM GAS  C:\Users\jimvr\AppData\Local\Temp\cc51sMLj.s 			page 18


 597              		.cfi_startproc
 598              		@ args = 0, pretend = 0, frame = 0
 599              		@ frame_needed = 0, uses_anonymous_args = 0
 600              	.LVL63:
 237:pids.c        **** 	{
 601              		.loc 1 237 0
 602 0000 0129     		cmp	r1, #1
 236:pids.c        **** 	if(Dest == DEVICE)
 603              		.loc 1 236 0
 604 0002 70B5     		push	{r4, r5, r6, lr}
 605              		.cfi_def_cfa_offset 16
 606              		.cfi_offset 4, -16
 607              		.cfi_offset 5, -12
 608              		.cfi_offset 6, -8
 609              		.cfi_offset 14, -4
 236:pids.c        **** 	if(Dest == DEVICE)
 610              		.loc 1 236 0
 611 0004 0446     		mov	r4, r0
 612 0006 0E46     		mov	r6, r1
 237:pids.c        **** 	{
 613              		.loc 1 237 0
 614 0008 18D1     		bne	.L39
 615              	.LVL64:
 616              	.LBB27:
 617              	.LBB28:
 239:pids.c        ****     	memcpy(RDM.stRDMIdentity, RDMPacket->byParameterData, RDMPacket->byParameterLength);
 618              		.loc 1 239 0
 619 000a 2122     		movs	r2, #33
 620 000c 0021     		movs	r1, #0
 621              	.LVL65:
 622 000e 0C48     		ldr	r0, .L40
 623              	.LVL66:
 624 0010 FFF7FEFF 		bl	memset
 625              	.LVL67:
 240:pids.c        ****     	RDMPacket->byParameterLength = 0;
 626              		.loc 1 240 0
 627 0014 E27D     		ldrb	r2, [r4, #23]	@ zero_extendqisi2
 628 0016 04F11801 		add	r1, r4, #24
 629 001a 0948     		ldr	r0, .L40
 630 001c FFF7FEFF 		bl	memcpy
 631              	.LVL68:
 241:pids.c        ****     	blSaveToRDM = true;
 632              		.loc 1 241 0
 633 0020 0025     		movs	r5, #0
 242:pids.c        ****         
 634              		.loc 1 242 0
 635 0022 084B     		ldr	r3, .L40+4
 244:pids.c        **** 		queue_enqueue(E120_DEVICE_LABEL, E120_SET_COMMAND, NULL, 0);
 636              		.loc 1 244 0
 637 0024 3221     		movs	r1, #50
 638 0026 2046     		mov	r0, r4
 241:pids.c        ****     	blSaveToRDM = true;
 639              		.loc 1 241 0
 640 0028 E575     		strb	r5, [r4, #23]
 242:pids.c        ****         
 641              		.loc 1 242 0
 642 002a 1E70     		strb	r6, [r3]
ARM GAS  C:\Users\jimvr\AppData\Local\Temp\cc51sMLj.s 			page 19


 244:pids.c        **** 		queue_enqueue(E120_DEVICE_LABEL, E120_SET_COMMAND, NULL, 0);
 643              		.loc 1 244 0
 644 002c FFF7FEFF 		bl	RDM_RespondTimer
 645              	.LVL69:
 245:pids.c        **** 	}
 646              		.loc 1 245 0
 647 0030 2B46     		mov	r3, r5
 648 0032 2A46     		mov	r2, r5
 649 0034 3021     		movs	r1, #48
 650 0036 8220     		movs	r0, #130
 651 0038 FFF7FEFF 		bl	queue_enqueue
 652              	.LVL70:
 653              	.L39:
 654              	.LBE28:
 655              	.LBE27:
 248:pids.c        **** 
 656              		.loc 1 248 0
 657 003c 0020     		movs	r0, #0
 658 003e 70BD     		pop	{r4, r5, r6, pc}
 659              	.LVL71:
 660              	.L41:
 661              		.align	2
 662              	.L40:
 663 0040 09000000 		.word	RDM+9
 664 0044 00000000 		.word	blSaveToRDM
 665              		.cfi_endproc
 666              	.LFE6:
 667              		.size	setDeviceLabel, .-setDeviceLabel
 668              		.section	.text.setSetUID,"ax",%progbits
 669              		.align	1
 670              		.global	setSetUID
 671              		.thumb
 672              		.thumb_func
 673              		.type	setSetUID, %function
 674              	setSetUID:
 675              	.LFB12:
 300:pids.c        **** 
 301:pids.c        **** extern bool blRDMRunCalibration;
 302:pids.c        **** bool getPerformSelftest(structRDMPacket *RDMPacket, PACKET_DEST Dest)
 303:pids.c        **** {
 304:pids.c        **** 	if(Dest == DEVICE)
 305:pids.c        **** 	{
 306:pids.c        **** 		RDMPacket->byParameterData[0] = blRDMRunCalibration;
 307:pids.c        **** 		RDMPacket->byParameterLength = 1;
 308:pids.c        **** 		return true;
 309:pids.c        **** 	}
 310:pids.c        **** 	else
 311:pids.c        **** 		return false;
 312:pids.c        **** }
 313:pids.c        **** 
 314:pids.c        **** bool setSetUID(structRDMPacket *RDMPacket, PACKET_DEST Dest)
 315:pids.c        **** {
 676              		.loc 1 315 0
 677              		.cfi_startproc
 678              		@ args = 0, pretend = 0, frame = 0
 679              		@ frame_needed = 0, uses_anonymous_args = 0
 680              	.LVL72:
ARM GAS  C:\Users\jimvr\AppData\Local\Temp\cc51sMLj.s 			page 20


 681 0000 10B5     		push	{r4, lr}
 682              		.cfi_def_cfa_offset 8
 683              		.cfi_offset 4, -8
 684              		.cfi_offset 14, -4
 316:pids.c        **** 	if(RDMPacket->byParameterLength == 4)
 685              		.loc 1 316 0
 686 0002 C47D     		ldrb	r4, [r0, #23]	@ zero_extendqisi2
 687 0004 042C     		cmp	r4, #4
 688 0006 0ED1     		bne	.L43
 689              	.LVL73:
 690              	.LBB33:
 691              	.LBB34:
 317:pids.c        **** 	{
 318:pids.c        **** 		uint8 UID[4] = {0};
 319:pids.c        **** 		memcpy(UID, RDMPacket->byParameterData, 4);
 320:pids.c        **** 		
 321:pids.c        **** 		if(Dest == DEVICE)
 692              		.loc 1 321 0
 693 0008 0129     		cmp	r1, #1
 694 000a 04D1     		bne	.L44
 322:pids.c        **** 		{
 323:pids.c        **** 			RDMPacket->byResponseType = E120_RESPONSE_TYPE_ACK;
 695              		.loc 1 323 0
 696 000c 0022     		movs	r2, #0
 697 000e 0274     		strb	r2, [r0, #16]
 324:pids.c        **** 			RDMPacket->byParameterLength = 0;
 698              		.loc 1 324 0
 699 0010 C275     		strb	r2, [r0, #23]
 325:pids.c        **** 			RDM_RespondMsg(RDMPacket);
 700              		.loc 1 325 0
 701 0012 FFF7FEFF 		bl	RDM_RespondMsg
 702              	.LVL74:
 703              	.L44:
 326:pids.c        **** 		}
 327:pids.c        **** 		
 328:pids.c        **** //		memcpy(&RDM.RDM_DevID[2], UID, 4);
 329:pids.c        ****         sprintf((char *)RDM.stRDMIdentity, _RDM_IDENTITY);
 704              		.loc 1 329 0
 705 0016 0749     		ldr	r1, .L46
 706 0018 0748     		ldr	r0, .L46+4
 707 001a FFF7FEFF 		bl	strcpy
 708              	.LVL75:
 330:pids.c        **** 		blSaveToRDM = true;
 709              		.loc 1 330 0
 710 001e 074B     		ldr	r3, .L46+8
 711 0020 0122     		movs	r2, #1
 712 0022 1A70     		strb	r2, [r3]
 713 0024 03E0     		b	.L45
 714              	.LVL76:
 715              	.L43:
 716              	.LBE34:
 717              	.LBE33:
 331:pids.c        **** 	}
 332:pids.c        **** 	else if(Dest == DEVICE)
 718              		.loc 1 332 0
 719 0026 0129     		cmp	r1, #1
 720 0028 01D1     		bne	.L45
ARM GAS  C:\Users\jimvr\AppData\Local\Temp\cc51sMLj.s 			page 21


 333:pids.c        **** 		RDM_RespondNACK(RDMPacket, E120_NR_FORMAT_ERROR);
 721              		.loc 1 333 0
 722 002a FFF7FEFF 		bl	RDM_RespondNACK
 723              	.LVL77:
 724              	.L45:
 334:pids.c        **** 		
 335:pids.c        **** 	return false;
 336:pids.c        **** }
 725              		.loc 1 336 0
 726 002e 0020     		movs	r0, #0
 727 0030 10BD     		pop	{r4, pc}
 728              	.L47:
 729 0032 00BF     		.align	2
 730              	.L46:
 731 0034 00000000 		.word	.LC0
 732 0038 09000000 		.word	RDM+9
 733 003c 00000000 		.word	blSaveToRDM
 734              		.cfi_endproc
 735              	.LFE12:
 736              		.size	setSetUID, .-setSetUID
 737              		.section	.text.getPerformSelftest,"ax",%progbits
 738              		.align	1
 739              		.global	getPerformSelftest
 740              		.thumb
 741              		.thumb_func
 742              		.type	getPerformSelftest, %function
 743              	getPerformSelftest:
 744              	.LFB11:
 303:pids.c        **** 	if(Dest == DEVICE)
 745              		.loc 1 303 0
 746              		.cfi_startproc
 747              		@ args = 0, pretend = 0, frame = 0
 748              		@ frame_needed = 0, uses_anonymous_args = 0
 749              		@ link register save eliminated.
 750              	.LVL78:
 304:pids.c        **** 	{
 751              		.loc 1 304 0
 752 0000 0129     		cmp	r1, #1
 306:pids.c        **** 		RDMPacket->byParameterLength = 1;
 753              		.loc 1 306 0
 754 0002 01BF     		itttt	eq
 755 0004 034B     		ldreq	r3, .L51
 307:pids.c        **** 		return true;
 756              		.loc 1 307 0
 757 0006 C175     		strbeq	r1, [r0, #23]
 306:pids.c        **** 		RDMPacket->byParameterLength = 1;
 758              		.loc 1 306 0
 759 0008 1B78     		ldrbeq	r3, [r3]	@ zero_extendqisi2
 760 000a 0376     		strbeq	r3, [r0, #24]
 308:pids.c        **** 	}
 761              		.loc 1 308 0
 762 000c 0CBF     		ite	eq
 763 000e 0846     		moveq	r0, r1
 764              	.LVL79:
 311:pids.c        **** }
 765              		.loc 1 311 0
 766 0010 0020     		movne	r0, #0
ARM GAS  C:\Users\jimvr\AppData\Local\Temp\cc51sMLj.s 			page 22


 312:pids.c        **** 
 767              		.loc 1 312 0
 768 0012 7047     		bx	lr
 769              	.L52:
 770              		.align	2
 771              	.L51:
 772 0014 00000000 		.word	blRDMRunCalibration
 773              		.cfi_endproc
 774              	.LFE11:
 775              		.size	getPerformSelftest, .-getPerformSelftest
 776              		.global	dmxPtys
 777              		.global	RDMPIDStoreLength
 778              		.global	RDMPIDStore
 779              		.comm	IsSlave,1,1
 780              		.comm	isInTempFault,1,1
 781              		.comm	uiTempFaultCount,4,4
 782              		.comm	structeeprom,2,1
 783              		.section	.rodata
 784              		.type	RDMPIDStoreLength, %object
 785              		.size	RDMPIDStoreLength, 1
 786              	RDMPIDStoreLength:
 787 0000 08       		.byte	8
 788              		.type	RDMPIDStore, %object
 789              		.size	RDMPIDStore, 264
 790              	RDMPIDStore:
 791 0001 2000     		.2byte	32
 792 0003 00000000 		.space	19
 792      00000000 
 792      00000000 
 792      00000000 
 792      000000
 793 0016 01       		.byte	1
 794 0017 00       		.byte	0
 795 0018 00000000 		.4byte	getQueuedMessage
 796 001c 00000000 		.4byte	0
 797 0020 0000     		.space	2
 798 0022 E000     		.2byte	224
 799 0024 00000000 		.space	19
 799      00000000 
 799      00000000 
 799      00000000 
 799      000000
 800 0037 00       		.byte	0
 801 0038 01       		.byte	1
 802 0039 00000000 		.4byte	getDMXPersonality
 803 003d 00000000 		.4byte	setDMXPersonality
 804 0041 0000     		.space	2
 805 0043 E100     		.2byte	225
 806 0045 00000000 		.space	19
 806      00000000 
 806      00000000 
 806      00000000 
 806      000000
 807 0058 01       		.byte	1
 808 0059 00       		.byte	0
 809 005a 00000000 		.4byte	getDMXPersonalityDescription
 810 005e 00000000 		.4byte	0
ARM GAS  C:\Users\jimvr\AppData\Local\Temp\cc51sMLj.s 			page 23


 811 0062 0000     		.space	2
 812 0064 8200     		.2byte	130
 813 0066 00000000 		.space	19
 813      00000000 
 813      00000000 
 813      00000000 
 813      000000
 814 0079 00       		.byte	0
 815 007a 21       		.byte	33
 816 007b 00000000 		.4byte	getDeviceLabel
 817 007f 00000000 		.4byte	setDeviceLabel
 818 0083 00       		.space	1
 819 0084 01       		.byte	1
 820 0085 8000     		.2byte	128
 821 0087 00000000 		.space	19
 821      00000000 
 821      00000000 
 821      00000000 
 821      000000
 822 009a 00       		.byte	0
 823 009b 00       		.byte	0
 824 009c 00000000 		.4byte	getDeviceModelDescription
 825 00a0 00000000 		.4byte	0
 826 00a4 00       		.space	1
 827 00a5 01       		.byte	1
 828 00a6 8100     		.2byte	129
 829 00a8 00000000 		.space	19
 829      00000000 
 829      00000000 
 829      00000000 
 829      000000
 830 00bb 00       		.byte	0
 831 00bc 00       		.byte	0
 832 00bd 00000000 		.4byte	getManufacturerLabel
 833 00c1 00000000 		.4byte	0
 834 00c5 00       		.space	1
 835 00c6 01       		.byte	1
 836 00c7 F000     		.2byte	240
 837 00c9 00000000 		.space	19
 837      00000000 
 837      00000000 
 837      00000000 
 837      000000
 838 00dc 00       		.byte	0
 839 00dd 02       		.byte	2
 840 00de 00000000 		.4byte	getDMXStartAddress
 841 00e2 00000000 		.4byte	setDMXStartAddress
 842 00e6 01       		.byte	1
 843 00e7 00       		.space	1
 844 00e8 00E1     		.2byte	-7936
 845 00ea 00000000 		.space	19
 845      00000000 
 845      00000000 
 845      00000000 
 845      000000
 846 00fd 00       		.byte	0
 847 00fe 04       		.byte	4
ARM GAS  C:\Users\jimvr\AppData\Local\Temp\cc51sMLj.s 			page 24


 848 00ff 00000000 		.4byte	0
 849 0103 00000000 		.4byte	setSetUID
 850 0107 01       		.byte	1
 851 0108 00       		.space	1
 852              		.section	.rodata.str1.1,"aMS",%progbits,1
 853              	.LC0:
 854 0000 43696E65 		.ascii	"Cineo 6Chan\000"
 854      6F203643 
 854      68616E00 
 855              	.LC1:
 856 000c 36636820 		.ascii	"6ch 8Bit\000"
 856      38426974 
 856      00
 857              	.LC2:
 858 0015 36636820 		.ascii	"6ch 16Bit\000"
 858      31364269 
 858      7400
 859              	.LC3:
 860 001f 31636820 		.ascii	"1ch 8Bit\000"
 860      38426974 
 860      00
 861              	.LC4:
 862 0028 31636820 		.ascii	"1ch 16Bit\000"
 862      31364269 
 862      7400
 863              		.data
 864              		.align	2
 865              		.set	.LANCHOR0,. + 0
 866              		.type	dmxPtys, %object
 867              		.size	dmxPtys, 32
 868              	dmxPtys:
 869 0000 0600     		.short	6
 870 0002 0000     		.space	2
 871 0004 0C000000 		.word	.LC1
 872 0008 0C00     		.short	12
 873 000a 0000     		.space	2
 874 000c 15000000 		.word	.LC2
 875 0010 0100     		.short	1
 876 0012 0000     		.space	2
 877 0014 1F000000 		.word	.LC3
 878 0018 0200     		.short	2
 879 001a 0000     		.space	2
 880 001c 28000000 		.word	.LC4
 881              		.text
 882              	.Letext0:
 883              		.file 2 "cytypes.h"
 884              		.file 3 "main.h"
 885              		.file 4 "pids.h"
 886              		.file 5 "rdm.h"
 887              		.file 6 "queue.h"
 888              		.file 7 "<built-in>"