ARM GAS  C:\Users\jimvr\AppData\Local\Temp\ccJWQyKu.s 			page 1


   1              		.syntax unified
   2              		.cpu cortex-m3
   3              		.fpu softvfp
   4              		.eabi_attribute 20, 1
   5              		.eabi_attribute 21, 1
   6              		.eabi_attribute 23, 3
   7              		.eabi_attribute 24, 1
   8              		.eabi_attribute 25, 1
   9              		.eabi_attribute 26, 1
  10              		.eabi_attribute 30, 4
  11              		.eabi_attribute 34, 1
  12              		.eabi_attribute 18, 4
  13              		.thumb
  14              		.syntax unified
  15              		.file	"queue.c"
  16              		.text
  17              	.Ltext0:
  18              		.cfi_sections	.debug_frame
  19              		.section	.text.queue_dequeue,"ax",%progbits
  20              		.align	1
  21              		.global	queue_dequeue
  22              		.thumb
  23              		.thumb_func
  24              		.type	queue_dequeue, %function
  25              	queue_dequeue:
  26              	.LFB1:
  27              		.file 1 "queue.c"
   1:queue.c       **** /*
   2:queue.c       **** 
   3:queue.c       ****     queue.c
   4:queue.c       ****     *****************************************************************************
   5:queue.c       ****     * Copyright (2014 - 2019) The NED Group
   6:queue.c       ****     ******************************************************************************
   7:queue.c       ****     see main.c for full disclaimer
   8:queue.c       ****     
   9:queue.c       **** */
  10:queue.c       ****     
  11:queue.c       **** 
  12:queue.c       **** #include <stdbool.h>
  13:queue.c       **** #include "queue.h"
  14:queue.c       **** #include "rdm.h"
  15:queue.c       **** 
  16:queue.c       **** extern structQueueItem Queue[QUEUE_LENGTH];
  17:queue.c       **** extern uint8 QueueMemory[QUEUE_MEMORY];
  18:queue.c       **** extern uint8 QueueIndex;
  19:queue.c       **** extern uint8* QueueMemPtr;
  20:queue.c       **** extern uint8 QueueMemLen;
  21:queue.c       **** 
  22:queue.c       **** extern bool RDM_pendingDequeue;
  23:queue.c       **** 
  24:queue.c       **** bool queue_enqueue(uint16 parameterID, uint8 commandClass, uint8* Data, uint8 DataLength)
  25:queue.c       **** {
  26:queue.c       ****     structQueueItem QI;
  27:queue.c       ****     QI.uiParameterID = CYSWAP_ENDIAN16(parameterID);
  28:queue.c       ****     QI.byCommandClass = commandClass;
  29:queue.c       **** 
  30:queue.c       ****     if (DataLength > QueueMemLen || QueueIndex >= QUEUE_LENGTH)
ARM GAS  C:\Users\jimvr\AppData\Local\Temp\ccJWQyKu.s 			page 2


  31:queue.c       ****         queue_dequeue();
  32:queue.c       **** 
  33:queue.c       ****     QI.byParameterData = QueueMemPtr;
  34:queue.c       ****     QI.byParameterLength = DataLength;
  35:queue.c       ****     memcpy(QueueMemPtr, Data, DataLength);
  36:queue.c       **** 
  37:queue.c       ****     QueueMemPtr += DataLength;
  38:queue.c       ****     QueueMemLen -= DataLength;
  39:queue.c       **** 
  40:queue.c       ****     Queue[QueueIndex] = QI;
  41:queue.c       ****     QueueIndex++;
  42:queue.c       **** 
  43:queue.c       ****     RDM_pendingDequeue = true;
  44:queue.c       ****     return true;
  45:queue.c       **** }
  46:queue.c       **** 
  47:queue.c       **** void queue_dequeue()
  48:queue.c       **** {
  28              		.loc 1 48 0
  29              		.cfi_startproc
  30              		@ args = 0, pretend = 0, frame = 0
  31              		@ frame_needed = 0, uses_anonymous_args = 0
  32              	.LVL0:
  33 0000 2DE9F041 		push	{r4, r5, r6, r7, r8, lr}
  34              		.cfi_def_cfa_offset 24
  35              		.cfi_offset 4, -24
  36              		.cfi_offset 5, -20
  37              		.cfi_offset 6, -16
  38              		.cfi_offset 7, -12
  39              		.cfi_offset 8, -8
  40              		.cfi_offset 14, -4
  49:queue.c       ****     uint8 memLen = Queue[0].byParameterLength;
  50:queue.c       ****     uint8 i;
  51:queue.c       **** 
  52:queue.c       ****     if (!QueueIndex)
  41              		.loc 1 52 0
  42 0004 184F     		ldr	r7, .L13
  43 0006 97F80080 		ldrb	r8, [r7]	@ zero_extendqisi2
  44 000a B8F1000F 		cmp	r8, #0
  45 000e 29D0     		beq	.L1
  49:queue.c       ****     uint8 memLen = Queue[0].byParameterLength;
  46              		.loc 1 49 0
  47 0010 164D     		ldr	r5, .L13+4
  53:queue.c       ****         return;
  54:queue.c       **** 
  55:queue.c       ****     memmove(&Queue, &Queue[1], QUEUE_LENGTH - 1);
  48              		.loc 1 55 0
  49 0012 0922     		movs	r2, #9
  50 0014 05F10801 		add	r1, r5, #8
  51 0018 2846     		mov	r0, r5
  49:queue.c       ****     uint8 memLen = Queue[0].byParameterLength;
  52              		.loc 1 49 0
  53 001a EE78     		ldrb	r6, [r5, #3]	@ zero_extendqisi2
  54              		.loc 1 55 0
  55 001c FFF7FEFF 		bl	memmove
  56              	.LVL1:
  56:queue.c       ****     memset(&Queue[QUEUE_LENGTH - 1], 0, sizeof(structQueueItem));
ARM GAS  C:\Users\jimvr\AppData\Local\Temp\ccJWQyKu.s 			page 3


  57:queue.c       **** 
  58:queue.c       ****     memmove(QueueMemory, &QueueMemory[memLen], QUEUE_MEMORY - memLen);
  57              		.loc 1 58 0
  58 0020 1348     		ldr	r0, .L13+8
  56:queue.c       ****     memset(&Queue[QUEUE_LENGTH - 1], 0, sizeof(structQueueItem));
  59              		.loc 1 56 0
  60 0022 0024     		movs	r4, #0
  61 0024 AC64     		str	r4, [r5, #72]	@ unaligned
  62 0026 EC64     		str	r4, [r5, #76]	@ unaligned
  63              		.loc 1 58 0
  64 0028 C6F11402 		rsb	r2, r6, #20
  65 002c 8119     		adds	r1, r0, r6
  66 002e FFF7FEFF 		bl	memmove
  67              	.LVL2:
  68 0032 2346     		mov	r3, r4
  59:queue.c       **** 
  60:queue.c       ****     for (i = 0; i < QUEUE_LENGTH; i++)
  61:queue.c       ****         if (Queue[i].uiParameterID)
  69              		.loc 1 61 0
  70 0034 2846     		mov	r0, r5
  71              	.LVL3:
  72              	.L4:
  73 0036 35F83320 		ldrh	r2, [r5, r3, lsl #3]	@ unaligned
  74 003a 22B1     		cbz	r2, .L3
  62:queue.c       ****             Queue[i].byParameterData -= memLen;
  75              		.loc 1 62 0
  76 003c 00EBC301 		add	r1, r0, r3, lsl #3
  77 0040 4A68     		ldr	r2, [r1, #4]	@ unaligned
  78 0042 921B     		subs	r2, r2, r6
  79 0044 4A60     		str	r2, [r1, #4]	@ unaligned
  80              	.L3:
  81              	.LVL4:
  82 0046 0133     		adds	r3, r3, #1
  83              	.LVL5:
  60:queue.c       ****         if (Queue[i].uiParameterID)
  84              		.loc 1 60 0 discriminator 2
  85 0048 0A2B     		cmp	r3, #10
  86 004a F4D1     		bne	.L4
  63:queue.c       **** 
  64:queue.c       ****     QueueMemPtr -= memLen;
  87              		.loc 1 64 0
  88 004c 094A     		ldr	r2, .L13+12
  65:queue.c       ****     QueueMemLen += memLen;
  66:queue.c       ****     QueueIndex--;
  89              		.loc 1 66 0
  90 004e 08F1FF38 		add	r8, r8, #-1
  64:queue.c       ****     QueueMemLen += memLen;
  91              		.loc 1 64 0
  92 0052 1368     		ldr	r3, [r2]
  93              		.loc 1 66 0
  94 0054 87F80080 		strb	r8, [r7]
  64:queue.c       ****     QueueMemLen += memLen;
  95              		.loc 1 64 0
  96 0058 9B1B     		subs	r3, r3, r6
  97 005a 1360     		str	r3, [r2]
  65:queue.c       ****     QueueMemLen += memLen;
  98              		.loc 1 65 0
ARM GAS  C:\Users\jimvr\AppData\Local\Temp\ccJWQyKu.s 			page 4


  99 005c 064A     		ldr	r2, .L13+16
 100 005e 1378     		ldrb	r3, [r2]	@ zero_extendqisi2
 101 0060 1E44     		add	r6, r6, r3
 102 0062 1670     		strb	r6, [r2]
 103              	.L1:
 104 0064 BDE8F081 		pop	{r4, r5, r6, r7, r8, pc}
 105              	.L14:
 106              		.align	2
 107              	.L13:
 108 0068 00000000 		.word	QueueIndex
 109 006c 00000000 		.word	Queue
 110 0070 00000000 		.word	QueueMemory
 111 0074 00000000 		.word	QueueMemPtr
 112 0078 00000000 		.word	QueueMemLen
 113              		.cfi_endproc
 114              	.LFE1:
 115              		.size	queue_dequeue, .-queue_dequeue
 116              		.section	.text.queue_enqueue,"ax",%progbits
 117              		.align	1
 118              		.global	queue_enqueue
 119              		.thumb
 120              		.thumb_func
 121              		.type	queue_enqueue, %function
 122              	queue_enqueue:
 123              	.LFB0:
  25:queue.c       ****     structQueueItem QI;
 124              		.loc 1 25 0
 125              		.cfi_startproc
 126              		@ args = 0, pretend = 0, frame = 0
 127              		@ frame_needed = 0, uses_anonymous_args = 0
 128              	.LVL6:
 129 0000 2DE9F84F 		push	{r3, r4, r5, r6, r7, r8, r9, r10, fp, lr}
 130              		.cfi_def_cfa_offset 40
 131              		.cfi_offset 3, -40
 132              		.cfi_offset 4, -36
 133              		.cfi_offset 5, -32
 134              		.cfi_offset 6, -28
 135              		.cfi_offset 7, -24
 136              		.cfi_offset 8, -20
 137              		.cfi_offset 9, -16
 138              		.cfi_offset 10, -12
 139              		.cfi_offset 11, -8
 140              		.cfi_offset 14, -4
  25:queue.c       ****     structQueueItem QI;
 141              		.loc 1 25 0
 142 0004 1C46     		mov	r4, r3
  30:queue.c       ****         queue_dequeue();
 143              		.loc 1 30 0
 144 0006 184D     		ldr	r5, .L18
  25:queue.c       ****     structQueueItem QI;
 145              		.loc 1 25 0
 146 0008 0F46     		mov	r7, r1
  30:queue.c       ****         queue_dequeue();
 147              		.loc 1 30 0
 148 000a 2B78     		ldrb	r3, [r5]	@ zero_extendqisi2
 149              	.LVL7:
  25:queue.c       ****     structQueueItem QI;
ARM GAS  C:\Users\jimvr\AppData\Local\Temp\ccJWQyKu.s 			page 5


 150              		.loc 1 25 0
 151 000c 9346     		mov	fp, r2
  30:queue.c       ****         queue_dequeue();
 152              		.loc 1 30 0
 153 000e A342     		cmp	r3, r4
  27:queue.c       ****     QI.byCommandClass = commandClass;
 154              		.loc 1 27 0
 155 0010 90FA90F8 		rev16	r8, r0
 156              	.LVL8:
 157 0014 154E     		ldr	r6, .L18+4
  30:queue.c       ****         queue_dequeue();
 158              		.loc 1 30 0
 159 0016 02D3     		bcc	.L16
  30:queue.c       ****         queue_dequeue();
 160              		.loc 1 30 0 is_stmt 0 discriminator 1
 161 0018 3378     		ldrb	r3, [r6]	@ zero_extendqisi2
 162 001a 092B     		cmp	r3, #9
 163 001c 01D9     		bls	.L17
 164              	.L16:
  31:queue.c       **** 
 165              		.loc 1 31 0 is_stmt 1
 166 001e FFF7FEFF 		bl	queue_dequeue
 167              	.LVL9:
 168              	.L17:
  33:queue.c       ****     QI.byParameterLength = DataLength;
 169              		.loc 1 33 0
 170 0022 DFF854A0 		ldr	r10, .L18+16
  35:queue.c       **** 
 171              		.loc 1 35 0
 172 0026 2246     		mov	r2, r4
  33:queue.c       ****     QI.byParameterLength = DataLength;
 173              		.loc 1 33 0
 174 0028 DAF80090 		ldr	r9, [r10]
 175              	.LVL10:
  35:queue.c       **** 
 176              		.loc 1 35 0
 177 002c 5946     		mov	r1, fp
 178 002e 4846     		mov	r0, r9
 179 0030 FFF7FEFF 		bl	memcpy
 180              	.LVL11:
  37:queue.c       ****     QueueMemLen -= DataLength;
 181              		.loc 1 37 0
 182 0034 DAF80030 		ldr	r3, [r10]
  40:queue.c       ****     QueueIndex++;
 183              		.loc 1 40 0
 184 0038 3278     		ldrb	r2, [r6]	@ zero_extendqisi2
  37:queue.c       ****     QueueMemLen -= DataLength;
 185              		.loc 1 37 0
 186 003a 2344     		add	r3, r3, r4
 187 003c CAF80030 		str	r3, [r10]
  38:queue.c       **** 
 188              		.loc 1 38 0
 189 0040 2B78     		ldrb	r3, [r5]	@ zero_extendqisi2
  40:queue.c       ****     QueueIndex++;
 190              		.loc 1 40 0
 191 0042 0B49     		ldr	r1, .L18+8
  38:queue.c       **** 
ARM GAS  C:\Users\jimvr\AppData\Local\Temp\ccJWQyKu.s 			page 6


 192              		.loc 1 38 0
 193 0044 1B1B     		subs	r3, r3, r4
 194 0046 2B70     		strb	r3, [r5]
  40:queue.c       ****     QueueIndex++;
 195              		.loc 1 40 0
 196 0048 01EBC203 		add	r3, r1, r2, lsl #3
 197 004c 21F83280 		strh	r8, [r1, r2, lsl #3]	@ unaligned
 198 0050 9F70     		strb	r7, [r3, #2]
 199 0052 DC70     		strb	r4, [r3, #3]
 200 0054 C3F80490 		str	r9, [r3, #4]	@ unaligned
  41:queue.c       **** 
 201              		.loc 1 41 0
 202 0058 0132     		adds	r2, r2, #1
  43:queue.c       ****     return true;
 203              		.loc 1 43 0
 204 005a 064B     		ldr	r3, .L18+12
 205 005c 0120     		movs	r0, #1
  41:queue.c       **** 
 206              		.loc 1 41 0
 207 005e 3270     		strb	r2, [r6]
  43:queue.c       ****     return true;
 208              		.loc 1 43 0
 209 0060 1870     		strb	r0, [r3]
 210              	.LVL12:
  45:queue.c       **** 
 211              		.loc 1 45 0
 212 0062 BDE8F88F 		pop	{r3, r4, r5, r6, r7, r8, r9, r10, fp, pc}
 213              	.LVL13:
 214              	.L19:
 215 0066 00BF     		.align	2
 216              	.L18:
 217 0068 00000000 		.word	QueueMemLen
 218 006c 00000000 		.word	QueueIndex
 219 0070 00000000 		.word	Queue
 220 0074 00000000 		.word	RDM_pendingDequeue
 221 0078 00000000 		.word	QueueMemPtr
 222              		.cfi_endproc
 223              	.LFE0:
 224              		.size	queue_enqueue, .-queue_enqueue
 225              		.section	.text.queue_front,"ax",%progbits
 226              		.align	1
 227              		.global	queue_front
 228              		.thumb
 229              		.thumb_func
 230              		.type	queue_front, %function
 231              	queue_front:
 232              	.LFB2:
  67:queue.c       **** }
  68:queue.c       **** 
  69:queue.c       **** structQueueItem queue_front()
  70:queue.c       **** {
 233              		.loc 1 70 0
 234              		.cfi_startproc
 235              		@ args = 0, pretend = 0, frame = 0
 236              		@ frame_needed = 0, uses_anonymous_args = 0
 237              		@ link register save eliminated.
 238              	.LVL14:
ARM GAS  C:\Users\jimvr\AppData\Local\Temp\ccJWQyKu.s 			page 7


  71:queue.c       ****     return Queue[0];
 239              		.loc 1 71 0
 240 0000 0249     		ldr	r1, .L21
 241 0002 0B68     		ldr	r3, [r1]	@ unaligned
 242 0004 0360     		str	r3, [r0]	@ unaligned
 243 0006 4B68     		ldr	r3, [r1, #4]	@ unaligned
 244 0008 4360     		str	r3, [r0, #4]	@ unaligned
  72:queue.c       **** }
 245              		.loc 1 72 0
 246 000a 7047     		bx	lr
 247              	.L22:
 248              		.align	2
 249              	.L21:
 250 000c 00000000 		.word	Queue
 251              		.cfi_endproc
 252              	.LFE2:
 253              		.size	queue_front, .-queue_front
 254              		.section	.text.queue_count,"ax",%progbits
 255              		.align	1
 256              		.global	queue_count
 257              		.thumb
 258              		.thumb_func
 259              		.type	queue_count, %function
 260              	queue_count:
 261              	.LFB3:
  73:queue.c       **** 
  74:queue.c       **** uint8 queue_count()
  75:queue.c       **** {
 262              		.loc 1 75 0
 263              		.cfi_startproc
 264              		@ args = 0, pretend = 0, frame = 0
 265              		@ frame_needed = 0, uses_anonymous_args = 0
 266              		@ link register save eliminated.
  76:queue.c       ****     return QueueIndex;
  77:queue.c       **** }
 267              		.loc 1 77 0
 268 0000 014B     		ldr	r3, .L24
 269 0002 1878     		ldrb	r0, [r3]	@ zero_extendqisi2
 270 0004 7047     		bx	lr
 271              	.L25:
 272 0006 00BF     		.align	2
 273              	.L24:
 274 0008 00000000 		.word	QueueIndex
 275              		.cfi_endproc
 276              	.LFE3:
 277              		.size	queue_count, .-queue_count
 278              		.text
 279              	.Letext0:
 280              		.file 2 "cytypes.h"
 281              		.file 3 "queue.h"
 282              		.file 4 "<built-in>"