ARM GAS  C:\Users\jimvr\AppData\Local\Temp\ccbnzlry.s 			page 1


   1              		.syntax unified
   2              		.cpu cortex-m3
   3              		.fpu softvfp
   4              		.eabi_attribute 20, 1
   5              		.eabi_attribute 21, 1
   6              		.eabi_attribute 23, 3
   7              		.eabi_attribute 24, 1
   8              		.eabi_attribute 25, 1
   9              		.eabi_attribute 26, 1
  10              		.eabi_attribute 30, 4
  11              		.eabi_attribute 34, 1
  12              		.eabi_attribute 18, 4
  13              		.thumb
  14              		.syntax unified
  15              		.file	"rdm.c"
  16              		.text
  17              	.Ltext0:
  18              		.cfi_sections	.debug_frame
  19              		.section	.text.RDM_Init,"ax",%progbits
  20              		.align	1
  21              		.global	RDM_Init
  22              		.thumb
  23              		.thumb_func
  24              		.type	RDM_Init, %function
  25              	RDM_Init:
  26              	.LFB1:
  27              		.file 1 "rdm.c"
   1:rdm.c         **** /*
   2:rdm.c         **** 
   3:rdm.c         ****     rdm.c
   4:rdm.c         ****     *****************************************************************************
   5:rdm.c         ****     * Copyright (2019 - 2020) The NED Group
   6:rdm.c         ****     ******************************************************************************
   7:rdm.c         ****     see main.c for full disclaimer
   8:rdm.c         ****     
   9:rdm.c         **** */
  10:rdm.c         ****     
  11:rdm.c         **** 
  12:rdm.c         **** #include <stdio.h>
  13:rdm.c         **** #include <stdbool.h>
  14:rdm.c         **** #include "rdm.h"
  15:rdm.c         **** #include "rdmESTA.h"
  16:rdm.c         **** #include "pids.h"
  17:rdm.c         **** #include "queue.h"
  18:rdm.c         **** #include "main.h"
  19:rdm.c         **** 
  20:rdm.c         **** extern structRDMPacket RDMResPacket;
  21:rdm.c         **** extern RDMSTATE state;
  22:rdm.c         **** extern uint8 paramCount;
  23:rdm.c         **** extern uint16 calculatedChecksum;
  24:rdm.c         **** extern uint16 receivedChecksum;
  25:rdm.c         **** extern bool isDevice;
  26:rdm.c         **** extern bool isBroadcast;
  27:rdm.c         **** extern bool isVendorcast;
  28:rdm.c         **** 
  29:rdm.c         **** extern const structRDMParameter RDMPIDStore[];
  30:rdm.c         **** extern const uint8 RDMPIDStoreLength;
ARM GAS  C:\Users\jimvr\AppData\Local\Temp\ccbnzlry.s 			page 2


  31:rdm.c         **** extern bool isSubDevice;
  32:rdm.c         **** 
  33:rdm.c         **** extern bool RDM_pendingDequeue;
  34:rdm.c         **** extern bool RDM_Identify;
  35:rdm.c         **** 
  36:rdm.c         **** extern void (*TRANSMIT_RESPONSE)(const uint8*, uint8, uint8);
  37:rdm.c         **** 
  38:rdm.c         **** extern structRDM RDM;
  39:rdm.c         **** extern structDeviceInfo *DEVICEINFO;
  40:rdm.c         **** 
  41:rdm.c         **** extern uint16 dmxStartAddress;
  42:rdm.c         **** 
  43:rdm.c         **** void RDM_Init(uint8* deviceUID, structDeviceInfo *deviceInfo, uint16 dmxAddress, bool subDevice, vo
  44:rdm.c         **** {
  28              		.loc 1 44 0
  29              		.cfi_startproc
  30              		@ args = 4, pretend = 0, frame = 0
  31              		@ frame_needed = 0, uses_anonymous_args = 0
  32              	.LVL0:
  33 0000 30B5     		push	{r4, r5, lr}
  34              		.cfi_def_cfa_offset 12
  35              		.cfi_offset 4, -12
  36              		.cfi_offset 5, -8
  37              		.cfi_offset 14, -4
  45:rdm.c         ****     memcpy(RDM.RDM_DevID, deviceUID, UID_LENGTH);
  38              		.loc 1 45 0
  39 0002 0C4C     		ldr	r4, .L3
  40 0004 0568     		ldr	r5, [r0]	@ unaligned
  41 0006 2560     		str	r5, [r4]	@ unaligned
  42 0008 8088     		ldrh	r0, [r0, #4]	@ unaligned
  43              	.LVL1:
  44 000a A080     		strh	r0, [r4, #4]	@ unaligned
  46:rdm.c         **** 	DEVICEINFO = deviceInfo;
  45              		.loc 1 46 0
  46 000c 0A48     		ldr	r0, .L3+4
  47 000e 0160     		str	r1, [r0]
  47:rdm.c         ****     if (!dmxAddress)
  48:rdm.c         ****         dmxAddress = 0xFFFF;
  48              		.loc 1 48 0
  49 0010 4FF6FF70 		movw	r0, #65535
  50 0014 002A     		cmp	r2, #0
  51 0016 08BF     		it	eq
  52 0018 0246     		moveq	r2, r0
  53              	.LVL2:
  49:rdm.c         ****     DEVICEINFO->uiDMXStartAddress = CYSWAP_ENDIAN16(dmxAddress);
  54              		.loc 1 49 0
  55 001a 52BA     		rev16	r2, r2
  56              	.LVL3:
  57 001c CA81     		strh	r2, [r1, #14]	@ unaligned
  50:rdm.c         ****     DEVICEINFO->uiDMXPersonality = (uint16)RDM.stRDMPersonality + ((_RDM_PERSONALITY_COUNT - 1) << 
  58              		.loc 1 50 0
  59 001e 227A     		ldrb	r2, [r4, #8]	@ zero_extendqisi2
  60 0020 02F58062 		add	r2, r2, #1024
  61 0024 8A81     		strh	r2, [r1, #12]	@ unaligned
  51:rdm.c         ****     isSubDevice = subDevice;
  62              		.loc 1 51 0
  63 0026 054A     		ldr	r2, .L3+8
ARM GAS  C:\Users\jimvr\AppData\Local\Temp\ccbnzlry.s 			page 3


  64 0028 1370     		strb	r3, [r2]
  52:rdm.c         ****     TRANSMIT_RESPONSE = transmitResponse;
  65              		.loc 1 52 0
  66 002a 054B     		ldr	r3, .L3+12
  67              	.LVL4:
  68 002c 039A     		ldr	r2, [sp, #12]
  69              	.LVL5:
  70 002e 1A60     		str	r2, [r3]
  71 0030 30BD     		pop	{r4, r5, pc}
  72              	.LVL6:
  73              	.L4:
  74 0032 00BF     		.align	2
  75              	.L3:
  76 0034 00000000 		.word	RDM
  77 0038 00000000 		.word	DEVICEINFO
  78 003c 00000000 		.word	isSubDevice
  79 0040 00000000 		.word	TRANSMIT_RESPONSE
  80              		.cfi_endproc
  81              	.LFE1:
  82              		.size	RDM_Init, .-RDM_Init
  83              		.section	.text.RDM_DiscoveryResponse,"ax",%progbits
  84              		.align	1
  85              		.global	RDM_DiscoveryResponse
  86              		.thumb
  87              		.thumb_func
  88              		.type	RDM_DiscoveryResponse, %function
  89              	RDM_DiscoveryResponse:
  90              	.LFB3:
  53:rdm.c         **** }
  54:rdm.c         **** 
  55:rdm.c         **** void RDM_HandleRequest(structRDMPacket* RDMPacket, PACKET_DEST PacketDest)
  56:rdm.c         **** {
  57:rdm.c         ****     static uint8 discMuteFlag = 0;
  58:rdm.c         ****     bool respondedFlag = false;
  59:rdm.c         **** 
  60:rdm.c         ****     if (!isSubDevice) {
  61:rdm.c         ****         if (CYSWAP_ENDIAN16(RDMPacket->uiSubDevice) > 1) {
  62:rdm.c         ****             RDM_RespondNACK(RDMPacket, E120_NR_SUB_DEVICE_OUT_OF_RANGE);
  63:rdm.c         ****             return;
  64:rdm.c         ****         }
  65:rdm.c         ****         switch (CYSWAP_ENDIAN16(RDMPacket->uiParameterID)) {
  66:rdm.c         ****         case E120_DISC_UN_MUTE:
  67:rdm.c         ****             if (!RDMPacket->byParameterLength) {
  68:rdm.c         ****                 discMuteFlag = 0;
  69:rdm.c         ****                 memset(RDMPacket->byParameterData, 0, 2);
  70:rdm.c         ****                 RDMPacket->byParameterLength = 2;
  71:rdm.c         ****                 respondedFlag = true;
  72:rdm.c         ****             } else
  73:rdm.c         ****                 return;
  74:rdm.c         ****             break;
  75:rdm.c         **** 
  76:rdm.c         ****         case E120_DISC_MUTE:
  77:rdm.c         ****             if (!RDMPacket->byParameterLength) {
  78:rdm.c         ****                 discMuteFlag = 1;
  79:rdm.c         ****                 memset(RDMPacket->byParameterData, 0, 2);
  80:rdm.c         ****                 RDMPacket->byParameterLength = 2;
  81:rdm.c         ****                 respondedFlag = true;
ARM GAS  C:\Users\jimvr\AppData\Local\Temp\ccbnzlry.s 			page 4


  82:rdm.c         ****             } else
  83:rdm.c         ****                 return;
  84:rdm.c         ****             break;
  85:rdm.c         **** 
  86:rdm.c         ****         case E120_DISC_UNIQUE_BRANCH:
  87:rdm.c         ****             if (!discMuteFlag)
  88:rdm.c         ****                 if (memcmp(RDM.RDM_DevID, RDMPacket->byParameterData, UID_LENGTH) >= 0
  89:rdm.c         ****                     && memcmp(RDM.RDM_DevID, &RDMPacket->byParameterData[6], UID_LENGTH) <= 0) {
  90:rdm.c         ****                     RDM_DiscoveryResponse();
  91:rdm.c         ****                     return;
  92:rdm.c         ****                 }
  93:rdm.c         ****             break;
  94:rdm.c         **** 
  95:rdm.c         ****         case E120_DEVICE_INFO:
  96:rdm.c         ****             if (RDMPacket->byCommandClass == E120_GET_COMMAND && !RDMPacket->byParameterLength) {
  97:rdm.c         ****                 memcpy(RDMPacket->byParameterData, DEVICEINFO, sizeof(structDeviceInfo));
  98:rdm.c         ****                 RDMPacket->byParameterLength = sizeof(structDeviceInfo);
  99:rdm.c         ****                 respondedFlag = true;
 100:rdm.c         ****             } else if (RDMPacket->byCommandClass == E120_SET_COMMAND) {
 101:rdm.c         ****                 RDM_RespondNACK(RDMPacket, E120_NR_UNSUPPORTED_COMMAND_CLASS);
 102:rdm.c         ****                 return;
 103:rdm.c         ****             } else {
 104:rdm.c         ****                 RDM_RespondNACK(RDMPacket, E120_NR_FORMAT_ERROR);
 105:rdm.c         ****                 return;
 106:rdm.c         ****             }
 107:rdm.c         ****             break;
 108:rdm.c         **** 
 109:rdm.c         ****         case E120_IDENTIFY_DEVICE:
 110:rdm.c         ****             if (RDMPacket->byCommandClass == E120_GET_COMMAND && !RDMPacket->byParameterLength) {
 111:rdm.c         ****                 RDMPacket->byParameterData[0] = RDM_Identify;
 112:rdm.c         ****                 RDMPacket->byParameterLength = 1;
 113:rdm.c         ****                 respondedFlag = true;
 114:rdm.c         ****             } else if (RDMPacket->byCommandClass == E120_SET_COMMAND && RDMPacket->byParameterLengt
 115:rdm.c         ****                 if (RDMPacket->byParameterData[0] >= 0 && RDMPacket->byParameterData[0] <= 1) {
 116:rdm.c         ****                     RDM_Identify = RDMPacket->byParameterData[0];
 117:rdm.c         ****                     RDMPacket->byParameterLength = 0;
 118:rdm.c         ****                     respondedFlag = true;
 119:rdm.c         ****                 } else {
 120:rdm.c         ****                     RDM_RespondNACK(RDMPacket, E120_NR_DATA_OUT_OF_RANGE);
 121:rdm.c         ****                     return;
 122:rdm.c         ****                 }
 123:rdm.c         ****             } else {
 124:rdm.c         ****                 RDM_RespondNACK(RDMPacket, E120_NR_FORMAT_ERROR);
 125:rdm.c         ****                 return;
 126:rdm.c         ****             }
 127:rdm.c         ****             break;
 128:rdm.c         **** 
 129:rdm.c         ****         case E120_SOFTWARE_VERSION_LABEL:
 130:rdm.c         ****             if (RDMPacket->byCommandClass == E120_GET_COMMAND && !RDMPacket->byParameterLength) {
 131:rdm.c         ****                 char softLabel[33];
 132:rdm.c         **** 
 133:rdm.c         ****                 sprintf(softLabel, "v%d.%02d build %d", VERSIONMAJOR, VERSIONMINOR, VERSIONBUILD);
 134:rdm.c         **** 
 135:rdm.c         ****                 strcpy((char*)RDMPacket->byParameterData, softLabel);
 136:rdm.c         ****                 RDMPacket->byParameterLength = strlen(softLabel);
 137:rdm.c         ****                 respondedFlag = true;
 138:rdm.c         ****             } else if (RDMPacket->byCommandClass == E120_SET_COMMAND) {
ARM GAS  C:\Users\jimvr\AppData\Local\Temp\ccbnzlry.s 			page 5


 139:rdm.c         ****                 RDM_RespondNACK(RDMPacket, E120_NR_UNSUPPORTED_COMMAND_CLASS);
 140:rdm.c         ****                 return;
 141:rdm.c         ****             } else {
 142:rdm.c         ****                 RDM_RespondNACK(RDMPacket, E120_NR_FORMAT_ERROR);
 143:rdm.c         ****                 return;
 144:rdm.c         ****             }
 145:rdm.c         ****             break;
 146:rdm.c         ****         }
 147:rdm.c         ****     } else if (CYSWAP_ENDIAN16(RDMPacket->uiSubDevice) != 1) {
 148:rdm.c         ****         switch (CYSWAP_ENDIAN16(RDMPacket->uiParameterID)) {
 149:rdm.c         ****         //Add PIDs to ignore here. Subdevice operation only.
 150:rdm.c         **** 
 151:rdm.c         ****         default:
 152:rdm.c         ****             return;
 153:rdm.c         ****             break;
 154:rdm.c         ****         }
 155:rdm.c         ****     }
 156:rdm.c         **** 
 157:rdm.c         ****     if (!respondedFlag) {
 158:rdm.c         ****         switch (CYSWAP_ENDIAN16(RDMPacket->uiParameterID)) {
 159:rdm.c         ****         case E120_SUPPORTED_PARAMETERS:
 160:rdm.c         ****             if (RDMPacket->byCommandClass == E120_GET_COMMAND && !RDMPacket->byParameterLength) {
 161:rdm.c         ****                 uint8 i, j;
 162:rdm.c         ****                 for (i = 0, j = 0; i < RDMPIDStoreLength; i++, j += 2) {
 163:rdm.c         ****                     if (!RDMPIDStore[i].blIsHidden) {
 164:rdm.c         ****                         RDMPacket->byParameterData[j + 0] = HI8(RDMPIDStore[i].uiParameterID);
 165:rdm.c         ****                         RDMPacket->byParameterData[j + 1] = LO8(RDMPIDStore[i].uiParameterID);
 166:rdm.c         ****                     } else
 167:rdm.c         ****                         j -= 2;
 168:rdm.c         ****                 }
 169:rdm.c         ****                 RDMPacket->byParameterLength = j;
 170:rdm.c         ****             } else if (RDMPacket->byCommandClass == E120_SET_COMMAND) {
 171:rdm.c         ****                 RDM_RespondNACK(RDMPacket, E120_NR_UNSUPPORTED_COMMAND_CLASS);
 172:rdm.c         ****                 return;
 173:rdm.c         ****             } else {
 174:rdm.c         ****                 RDM_RespondNACK(RDMPacket, E120_NR_FORMAT_ERROR);
 175:rdm.c         ****                 return;
 176:rdm.c         ****             }
 177:rdm.c         ****             break;
 178:rdm.c         **** 
 179:rdm.c         ****         case E120_PARAMETER_DESCRIPTION: {
 180:rdm.c         ****             uint8 i = 0;
 181:rdm.c         ****             bool hasCustomPID = false;
 182:rdm.c         **** 
 183:rdm.c         ****             for (i = 0; i < RDMPIDStoreLength; i++)
 184:rdm.c         ****                 if (RDMPIDStore[i].uiParameterID >= 0x8000 && !RDMPIDStore[i].blIsHidden)
 185:rdm.c         ****                     hasCustomPID = true;
 186:rdm.c         **** 
 187:rdm.c         ****             if (!hasCustomPID) {
 188:rdm.c         ****                 RDM_RespondNACK(RDMPacket, E120_NR_UNKNOWN_PID);
 189:rdm.c         ****                 return;
 190:rdm.c         ****             }
 191:rdm.c         ****         }
 192:rdm.c         ****             if (RDMPacket->byCommandClass == E120_GET_COMMAND && RDMPacket->byParameterLength == 2)
 193:rdm.c         ****                 const uint16 PID = UINT8_TO_UINT16(RDMPacket->byParameterData[0], RDMPacket->byPara
 194:rdm.c         ****                 const structRDMParameter* RDMParameter = RDM_LookupPID(PID);
 195:rdm.c         **** 
ARM GAS  C:\Users\jimvr\AppData\Local\Temp\ccbnzlry.s 			page 6


 196:rdm.c         ****                 if (RDMParameter != NULL && PID >= 0x8000) {
 197:rdm.c         ****                     uint8 descLen = strlen(RDMParameter->strDesc);
 198:rdm.c         ****                     RDMPacket->byParameterData[2] = (RDMParameter->byGetLength > RDMParameter->bySe
 199:rdm.c         ****                     RDMPacket->byParameterData[3] = RDMParameter->byDataType;
 200:rdm.c         ****                     RDMPacket->byParameterData[4] = (RDMParameter->getRequestHandler ? E120_CC_GET 
 201:rdm.c         ****                         | (RDMParameter->setRequestHandler ? E120_CC_SET : 0);
 202:rdm.c         ****                     RDMPacket->byParameterData[5] = 0;
 203:rdm.c         ****                     RDMPacket->byParameterData[6] = RDMParameter->byUnits;
 204:rdm.c         ****                     RDMPacket->byParameterData[7] = RDMParameter->byPrefix;
 205:rdm.c         ****                     memcpy(&RDMPacket->byParameterData[8], &RDMParameter->ulMinValue, sizeof(uint32
 206:rdm.c         ****                     memcpy(&RDMPacket->byParameterData[12], &RDMParameter->ulMaxValue, sizeof(uint3
 207:rdm.c         ****                     memcpy(&RDMPacket->byParameterData[16], &RDMParameter->ulDefValue, sizeof(uint3
 208:rdm.c         ****                     memcpy(&RDMPacket->byParameterData[20], RDMParameter->strDesc, descLen);
 209:rdm.c         ****                     RDMPacket->byParameterLength = 20 + descLen;
 210:rdm.c         ****                 } else {
 211:rdm.c         ****                     RDM_RespondNACK(RDMPacket, E120_NR_DATA_OUT_OF_RANGE);
 212:rdm.c         ****                     return;
 213:rdm.c         ****                 }
 214:rdm.c         ****             } else if (RDMPacket->byCommandClass == E120_SET_COMMAND) {
 215:rdm.c         ****                 RDM_RespondNACK(RDMPacket, E120_NR_UNSUPPORTED_COMMAND_CLASS);
 216:rdm.c         ****                 return;
 217:rdm.c         ****             } else {
 218:rdm.c         ****                 RDM_RespondNACK(RDMPacket, E120_NR_FORMAT_ERROR);
 219:rdm.c         ****                 return;
 220:rdm.c         ****             }
 221:rdm.c         ****             break;
 222:rdm.c         **** 
 223:rdm.c         ****         default: {
 224:rdm.c         ****             const structRDMParameter* RDMParameter = RDM_LookupPID(CYSWAP_ENDIAN16(RDMPacket->uiPar
 225:rdm.c         ****             if (RDMParameter != NULL) {
 226:rdm.c         ****                 if (RDMPacket->byCommandClass == E120_GET_COMMAND) {
 227:rdm.c         ****                     if (RDMParameter->getRequestHandler != NULL)
 228:rdm.c         ****                         if (RDMParameter->byGetLength == RDMPacket->byParameterLength) {
 229:rdm.c         ****                             if (!RDMParameter->getRequestHandler(RDMPacket, PacketDest))
 230:rdm.c         ****                                 return;
 231:rdm.c         ****                         } else {
 232:rdm.c         ****                             RDM_RespondNACK(RDMPacket, E120_NR_FORMAT_ERROR);
 233:rdm.c         ****                             return;
 234:rdm.c         ****                         }
 235:rdm.c         ****                     else {
 236:rdm.c         ****                         RDM_RespondNACK(RDMPacket, E120_NR_UNSUPPORTED_COMMAND_CLASS);
 237:rdm.c         ****                         return;
 238:rdm.c         ****                     }
 239:rdm.c         ****                 } else if (RDMPacket->byCommandClass == E120_SET_COMMAND) {
 240:rdm.c         ****                     if (RDMParameter->setRequestHandler != NULL)
 241:rdm.c         ****                         if (RDMParameter->bySetLength == RDMPacket->byParameterLength
 242:rdm.c         ****                             || (RDMParameter->blIsText && RDMPacket->byParameterLength <= RDMParame
 243:rdm.c         ****                             if (!RDMParameter->setRequestHandler(RDMPacket, PacketDest))
 244:rdm.c         ****                                 return;
 245:rdm.c         ****                         } else {
 246:rdm.c         ****                             RDM_RespondNACK(RDMPacket, E120_NR_FORMAT_ERROR);
 247:rdm.c         ****                             return;
 248:rdm.c         ****                         }
 249:rdm.c         ****                     else {
 250:rdm.c         ****                         RDM_RespondNACK(RDMPacket, E120_NR_UNSUPPORTED_COMMAND_CLASS);
 251:rdm.c         ****                         return;
 252:rdm.c         ****                     }
ARM GAS  C:\Users\jimvr\AppData\Local\Temp\ccbnzlry.s 			page 7


 253:rdm.c         ****                 }
 254:rdm.c         ****             } else {
 255:rdm.c         ****                 if (RDMPacket->byCommandClass != E120_DISCOVERY_COMMAND)
 256:rdm.c         ****                     RDM_RespondNACK(RDMPacket, E120_NR_UNKNOWN_PID);
 257:rdm.c         ****                 return;
 258:rdm.c         ****             }
 259:rdm.c         ****         } break;
 260:rdm.c         ****         }
 261:rdm.c         ****     }
 262:rdm.c         ****     if (PacketDest == DEVICE) {
 263:rdm.c         ****         RDMPacket->byResponseType = E120_RESPONSE_TYPE_ACK;
 264:rdm.c         ****         RDM_RespondMsg(RDMPacket);
 265:rdm.c         ****         if (RDM_pendingDequeue && queue_count()) {
 266:rdm.c         ****             queue_dequeue();
 267:rdm.c         ****         }
 268:rdm.c         ****     }
 269:rdm.c         **** }
 270:rdm.c         **** 
 271:rdm.c         **** void RDM_DiscoveryResponse()
 272:rdm.c         **** {
  91              		.loc 1 272 0
  92              		.cfi_startproc
  93              		@ args = 0, pretend = 0, frame = 24
  94              		@ frame_needed = 0, uses_anonymous_args = 0
  95 0000 F0B5     		push	{r4, r5, r6, r7, lr}
  96              		.cfi_def_cfa_offset 20
  97              		.cfi_offset 4, -20
  98              		.cfi_offset 5, -16
  99              		.cfi_offset 6, -12
 100              		.cfi_offset 7, -8
 101              		.cfi_offset 14, -4
 102 0002 87B0     		sub	sp, sp, #28
 103              		.cfi_def_cfa_offset 48
 273:rdm.c         ****     structDiscovery RDMDiscovery = {
 104              		.loc 1 273 0
 105 0004 6A46     		mov	r2, sp
 106 0006 6D46     		mov	r5, sp
 107 0008 1C4B     		ldr	r3, .L15
 108 000a 03F11806 		add	r6, r3, #24
 109              	.L6:
 110 000e 1446     		mov	r4, r2
 111 0010 1868     		ldr	r0, [r3]	@ unaligned
 112 0012 5968     		ldr	r1, [r3, #4]	@ unaligned
 113 0014 0833     		adds	r3, r3, #8
 114 0016 03C4     		stmia	r4!, {r0, r1}
 115 0018 B342     		cmp	r3, r6
 116 001a 2246     		mov	r2, r4
 117 001c F7D1     		bne	.L6
 118              	.LVL7:
 119 001e 0024     		movs	r4, #0
 120 0020 2A46     		mov	r2, r5
 274:rdm.c         ****         .byPreamble = { 0xFE, 0xFE, 0xFE, 0xFE, 0xFE, 0xFE, 0xFE, 0xAA },
 275:rdm.c         ****         .byDeviceID = { 0xAA, 0x55, 0xAA, 0x55, 0xAA, 0x55, 0xAA, 0x55, 0xAA, 0x55, 0xAA, 0x55 },
 276:rdm.c         ****         .byChecksum = { 0xAA, 0x55, 0xAA, 0x55 },
 277:rdm.c         ****     };
 278:rdm.c         **** 
 279:rdm.c         ****     uint16 checksum = 0;
ARM GAS  C:\Users\jimvr\AppData\Local\Temp\ccbnzlry.s 			page 8


 121              		.loc 1 279 0
 122 0022 2346     		mov	r3, r4
 280:rdm.c         ****     uint8 i, j;
 281:rdm.c         ****     for (i = 0, j = 0; i < 6; i++, j += 2) {
 282:rdm.c         ****         RDMDiscovery.byDeviceID[j + 0] |= RDM.RDM_DevID[i];
 123              		.loc 1 282 0
 124 0024 164F     		ldr	r7, .L15+4
 125              	.LVL8:
 126              	.L7:
 127              		.loc 1 282 0 is_stmt 0 discriminator 3
 128 0026 E15D     		ldrb	r1, [r4, r7]	@ zero_extendqisi2
 129 0028 167A     		ldrb	r6, [r2, #8]	@ zero_extendqisi2
 283:rdm.c         ****         checksum += RDMDiscovery.byDeviceID[j + 0];
 284:rdm.c         **** 
 285:rdm.c         ****         RDMDiscovery.byDeviceID[j + 1] |= RDM.RDM_DevID[i];
 130              		.loc 1 285 0 is_stmt 1 discriminator 3
 131 002a 507A     		ldrb	r0, [r2, #9]	@ zero_extendqisi2
 282:rdm.c         ****         checksum += RDMDiscovery.byDeviceID[j + 0];
 132              		.loc 1 282 0 discriminator 3
 133 002c 0E43     		orrs	r6, r6, r1
 134              		.loc 1 285 0 discriminator 3
 135 002e 0143     		orrs	r1, r1, r0
 136 0030 5172     		strb	r1, [r2, #9]
 137 0032 0134     		adds	r4, r4, #1
 138              	.LVL9:
 286:rdm.c         ****         checksum += RDMDiscovery.byDeviceID[j + 1];
 139              		.loc 1 286 0 discriminator 3
 140 0034 3144     		add	r1, r1, r6
 141 0036 0B44     		add	r3, r3, r1
 142              	.LVL10:
 281:rdm.c         ****         RDMDiscovery.byDeviceID[j + 0] |= RDM.RDM_DevID[i];
 143              		.loc 1 281 0 discriminator 3
 144 0038 062C     		cmp	r4, #6
 282:rdm.c         ****         checksum += RDMDiscovery.byDeviceID[j + 0];
 145              		.loc 1 282 0 discriminator 3
 146 003a 1672     		strb	r6, [r2, #8]
 147              		.loc 1 286 0 discriminator 3
 148 003c 9BB2     		uxth	r3, r3
 149              	.LVL11:
 150 003e 02F10202 		add	r2, r2, #2
 151              	.LVL12:
 281:rdm.c         ****         RDMDiscovery.byDeviceID[j + 0] |= RDM.RDM_DevID[i];
 152              		.loc 1 281 0 discriminator 3
 153 0042 F0D1     		bne	.L7
 287:rdm.c         ****     }
 288:rdm.c         **** 
 289:rdm.c         ****     RDMDiscovery.byChecksum[0] |= HI8(checksum);
 154              		.loc 1 289 0
 155 0044 1A0A     		lsrs	r2, r3, #8
 156 0046 62F05501 		orn	r1, r2, #85
 290:rdm.c         ****     RDMDiscovery.byChecksum[1] |= HI8(checksum);
 291:rdm.c         ****     RDMDiscovery.byChecksum[2] |= LO8(checksum);
 157              		.loc 1 291 0
 158 004a DBB2     		uxtb	r3, r3
 159              	.LVL13:
 290:rdm.c         ****     RDMDiscovery.byChecksum[1] |= HI8(checksum);
 160              		.loc 1 290 0
ARM GAS  C:\Users\jimvr\AppData\Local\Temp\ccbnzlry.s 			page 9


 161 004c 42F05502 		orr	r2, r2, #85
 162 0050 8DF81520 		strb	r2, [sp, #21]
 163              		.loc 1 291 0
 164 0054 63F05502 		orn	r2, r3, #85
 292:rdm.c         ****     RDMDiscovery.byChecksum[3] |= LO8(checksum);
 165              		.loc 1 292 0
 166 0058 43F05503 		orr	r3, r3, #85
 167 005c 8DF81730 		strb	r3, [sp, #23]
 293:rdm.c         **** 
 294:rdm.c         ****     if (TRANSMIT_RESPONSE != NULL)
 168              		.loc 1 294 0
 169 0060 084B     		ldr	r3, .L15+8
 289:rdm.c         ****     RDMDiscovery.byChecksum[1] |= HI8(checksum);
 170              		.loc 1 289 0
 171 0062 8DF81410 		strb	r1, [sp, #20]
 172              		.loc 1 294 0
 173 0066 1B68     		ldr	r3, [r3]
 291:rdm.c         ****     RDMDiscovery.byChecksum[3] |= LO8(checksum);
 174              		.loc 1 291 0
 175 0068 8DF81620 		strb	r2, [sp, #22]
 176              		.loc 1 294 0
 177 006c 1BB1     		cbz	r3, .L5
 295:rdm.c         ****         TRANSMIT_RESPONSE((uint8*)&RDMDiscovery, sizeof(RDMDiscovery), false);
 178              		.loc 1 295 0
 179 006e 0022     		movs	r2, #0
 180 0070 1821     		movs	r1, #24
 181 0072 2846     		mov	r0, r5
 182 0074 9847     		blx	r3
 183              	.LVL14:
 184              	.L5:
 296:rdm.c         **** }
 185              		.loc 1 296 0
 186 0076 07B0     		add	sp, sp, #28
 187              		.cfi_def_cfa_offset 20
 188              		@ sp needed
 189 0078 F0BD     		pop	{r4, r5, r6, r7, pc}
 190              	.L16:
 191 007a 00BF     		.align	2
 192              	.L15:
 193 007c 00000000 		.word	.LANCHOR0
 194 0080 00000000 		.word	RDM
 195 0084 00000000 		.word	TRANSMIT_RESPONSE
 196              		.cfi_endproc
 197              	.LFE3:
 198              		.size	RDM_DiscoveryResponse, .-RDM_DiscoveryResponse
 199              		.section	.text.RDM_RespondMsg,"ax",%progbits
 200              		.align	1
 201              		.global	RDM_RespondMsg
 202              		.thumb
 203              		.thumb_func
 204              		.type	RDM_RespondMsg, %function
 205              	RDM_RespondMsg:
 206              	.LFB4:
 297:rdm.c         **** 
 298:rdm.c         **** void RDM_RespondMsg(structRDMPacket* RDMPacket)
 299:rdm.c         **** {
 207              		.loc 1 299 0
ARM GAS  C:\Users\jimvr\AppData\Local\Temp\ccbnzlry.s 			page 10


 208              		.cfi_startproc
 209              		@ args = 0, pretend = 0, frame = 0
 210              		@ frame_needed = 0, uses_anonymous_args = 0
 211              		@ link register save eliminated.
 212              	.LVL15:
 213 0000 10B4     		push	{r4}
 214              		.cfi_def_cfa_offset 4
 215              		.cfi_offset 4, -4
 300:rdm.c         ****     uint16 checksum = 0;
 301:rdm.c         ****     uint8* pItr = (uint8*)RDMPacket;
 302:rdm.c         ****     uint8 i;
 303:rdm.c         **** 
 304:rdm.c         ****     RDMPacket->byStartCode = E120_SC_RDM;
 305:rdm.c         ****     RDMPacket->byMessageLength = 24 + RDMPacket->byParameterLength;
 306:rdm.c         ****     RDMPacket->byCommandClass++;
 307:rdm.c         **** 
 308:rdm.c         ****     for (i = 0; i < RDMPacket->byMessageLength; i++)
 216              		.loc 1 308 0
 217 0002 0446     		mov	r4, r0
 304:rdm.c         ****     RDMPacket->byMessageLength = 24 + RDMPacket->byParameterLength;
 218              		.loc 1 304 0
 219 0004 CC23     		movs	r3, #204
 220 0006 0370     		strb	r3, [r0]
 305:rdm.c         ****     RDMPacket->byCommandClass++;
 221              		.loc 1 305 0
 222 0008 C37D     		ldrb	r3, [r0, #23]	@ zero_extendqisi2
 306:rdm.c         **** 
 223              		.loc 1 306 0
 224 000a 027D     		ldrb	r2, [r0, #20]	@ zero_extendqisi2
 305:rdm.c         ****     RDMPacket->byCommandClass++;
 225              		.loc 1 305 0
 226 000c 1833     		adds	r3, r3, #24
 306:rdm.c         **** 
 227              		.loc 1 306 0
 228 000e 0132     		adds	r2, r2, #1
 305:rdm.c         ****     RDMPacket->byCommandClass++;
 229              		.loc 1 305 0
 230 0010 DBB2     		uxtb	r3, r3
 306:rdm.c         **** 
 231              		.loc 1 306 0
 232 0012 0275     		strb	r2, [r0, #20]
 233              	.LVL16:
 305:rdm.c         ****     RDMPacket->byCommandClass++;
 234              		.loc 1 305 0
 235 0014 8370     		strb	r3, [r0, #2]
 300:rdm.c         ****     uint8* pItr = (uint8*)RDMPacket;
 236              		.loc 1 300 0
 237 0016 0022     		movs	r2, #0
 238              	.LVL17:
 239              	.L18:
 240              		.loc 1 308 0 discriminator 1
 241 0018 211A     		subs	r1, r4, r0
 242 001a C9B2     		uxtb	r1, r1
 243 001c 8B42     		cmp	r3, r1
 244 001e 04D9     		bls	.L21
 309:rdm.c         ****         checksum += *pItr++;
 245              		.loc 1 309 0 discriminator 3
ARM GAS  C:\Users\jimvr\AppData\Local\Temp\ccbnzlry.s 			page 11


 246 0020 14F8011B 		ldrb	r1, [r4], #1	@ zero_extendqisi2
 247              	.LVL18:
 248 0024 0A44     		add	r2, r2, r1
 249              	.LVL19:
 250 0026 92B2     		uxth	r2, r2
 251              	.LVL20:
 252 0028 F6E7     		b	.L18
 253              	.LVL21:
 254              	.L21:
 310:rdm.c         **** 
 311:rdm.c         ****     *pItr++ = HI8(checksum);
 255              		.loc 1 311 0
 256 002a 140A     		lsrs	r4, r2, #8
 257              	.LVL22:
 258 002c C454     		strb	r4, [r0, r3]
 259 002e C118     		adds	r1, r0, r3
 260              	.LVL23:
 312:rdm.c         ****     *pItr++ = LO8(checksum);
 313:rdm.c         **** 
 314:rdm.c         ****     if (TRANSMIT_RESPONSE != NULL)
 261              		.loc 1 314 0
 262 0030 054B     		ldr	r3, .L22
 312:rdm.c         ****     *pItr++ = LO8(checksum);
 263              		.loc 1 312 0
 264 0032 4A70     		strb	r2, [r1, #1]
 265              		.loc 1 314 0
 266 0034 1B68     		ldr	r3, [r3]
 267 0036 2BB1     		cbz	r3, .L17
 315:rdm.c         ****         TRANSMIT_RESPONSE((uint8*)RDMPacket, RDMPacket->byMessageLength + 2, true);
 268              		.loc 1 315 0
 269 0038 8178     		ldrb	r1, [r0, #2]	@ zero_extendqisi2
 270              	.LVL24:
 271 003a 0122     		movs	r2, #1
 272              	.LVL25:
 273 003c 0231     		adds	r1, r1, #2
 274 003e C9B2     		uxtb	r1, r1
 316:rdm.c         **** }
 275              		.loc 1 316 0
 276 0040 10BC     		pop	{r4}
 277              		.cfi_remember_state
 278              		.cfi_restore 4
 279              		.cfi_def_cfa_offset 0
 315:rdm.c         ****         TRANSMIT_RESPONSE((uint8*)RDMPacket, RDMPacket->byMessageLength + 2, true);
 280              		.loc 1 315 0
 281 0042 1847     		bx	r3	@ indirect register sibling call
 282              	.LVL26:
 283              	.L17:
 284              		.cfi_restore_state
 285              		.loc 1 316 0
 286 0044 10BC     		pop	{r4}
 287              		.cfi_restore 4
 288              		.cfi_def_cfa_offset 0
 289 0046 7047     		bx	lr
 290              	.L23:
 291              		.align	2
 292              	.L22:
 293 0048 00000000 		.word	TRANSMIT_RESPONSE
ARM GAS  C:\Users\jimvr\AppData\Local\Temp\ccbnzlry.s 			page 12


 294              		.cfi_endproc
 295              	.LFE4:
 296              		.size	RDM_RespondMsg, .-RDM_RespondMsg
 297              		.section	.text.RDM_RespondNACK,"ax",%progbits
 298              		.align	1
 299              		.global	RDM_RespondNACK
 300              		.thumb
 301              		.thumb_func
 302              		.type	RDM_RespondNACK, %function
 303              	RDM_RespondNACK:
 304              	.LFB5:
 317:rdm.c         **** 
 318:rdm.c         **** void RDM_RespondNACK(structRDMPacket* RDMPacket, uint16 NACKCode)
 319:rdm.c         **** {
 305              		.loc 1 319 0
 306              		.cfi_startproc
 307              		@ args = 0, pretend = 0, frame = 0
 308              		@ frame_needed = 0, uses_anonymous_args = 0
 309              		@ link register save eliminated.
 310              	.LVL27:
 320:rdm.c         ****     RDMPacket->byParameterData[0] = HI8(NACKCode);
 311              		.loc 1 320 0
 312 0000 0A0A     		lsrs	r2, r1, #8
 313 0002 0276     		strb	r2, [r0, #24]
 321:rdm.c         ****     RDMPacket->byParameterData[1] = LO8(NACKCode);
 322:rdm.c         ****     RDMPacket->byParameterLength = 2;
 314              		.loc 1 322 0
 315 0004 0222     		movs	r2, #2
 321:rdm.c         ****     RDMPacket->byParameterData[1] = LO8(NACKCode);
 316              		.loc 1 321 0
 317 0006 4176     		strb	r1, [r0, #25]
 318              		.loc 1 322 0
 319 0008 C275     		strb	r2, [r0, #23]
 323:rdm.c         ****     RDMPacket->byResponseType = E120_RESPONSE_TYPE_NACK_REASON;
 320              		.loc 1 323 0
 321 000a 0274     		strb	r2, [r0, #16]
 324:rdm.c         ****     RDM_RespondMsg(RDMPacket);
 322              		.loc 1 324 0
 323 000c FFF7FEBF 		b	RDM_RespondMsg
 324              	.LVL28:
 325              		.cfi_endproc
 326              	.LFE5:
 327              		.size	RDM_RespondNACK, .-RDM_RespondNACK
 328              		.section	.text.RDM_RespondTimer,"ax",%progbits
 329              		.align	1
 330              		.global	RDM_RespondTimer
 331              		.thumb
 332              		.thumb_func
 333              		.type	RDM_RespondTimer, %function
 334              	RDM_RespondTimer:
 335              	.LFB6:
 325:rdm.c         **** }
 326:rdm.c         **** 
 327:rdm.c         **** void RDM_RespondTimer(structRDMPacket* RDMPacket, uint16 timeAmount)
 328:rdm.c         **** {
 336              		.loc 1 328 0
 337              		.cfi_startproc
ARM GAS  C:\Users\jimvr\AppData\Local\Temp\ccbnzlry.s 			page 13


 338              		@ args = 0, pretend = 0, frame = 0
 339              		@ frame_needed = 0, uses_anonymous_args = 0
 340              		@ link register save eliminated.
 341              	.LVL29:
 329:rdm.c         ****     RDMPacket->byParameterData[0] = HI8(timeAmount);
 342              		.loc 1 329 0
 343 0000 0A0A     		lsrs	r2, r1, #8
 344 0002 0276     		strb	r2, [r0, #24]
 330:rdm.c         ****     RDMPacket->byParameterData[1] = LO8(timeAmount);
 331:rdm.c         ****     RDMPacket->byParameterLength = 2;
 345              		.loc 1 331 0
 346 0004 0222     		movs	r2, #2
 347 0006 C275     		strb	r2, [r0, #23]
 332:rdm.c         ****     RDMPacket->byResponseType = E120_RESPONSE_TYPE_ACK_TIMER;
 348              		.loc 1 332 0
 349 0008 0122     		movs	r2, #1
 330:rdm.c         ****     RDMPacket->byParameterData[1] = LO8(timeAmount);
 350              		.loc 1 330 0
 351 000a 4176     		strb	r1, [r0, #25]
 352              		.loc 1 332 0
 353 000c 0274     		strb	r2, [r0, #16]
 333:rdm.c         ****     RDM_RespondMsg(RDMPacket);
 354              		.loc 1 333 0
 355 000e FFF7FEBF 		b	RDM_RespondMsg
 356              	.LVL30:
 357              		.cfi_endproc
 358              	.LFE6:
 359              		.size	RDM_RespondTimer, .-RDM_RespondTimer
 360              		.section	.text.RDM_LookupPID,"ax",%progbits
 361              		.align	1
 362              		.global	RDM_LookupPID
 363              		.thumb
 364              		.thumb_func
 365              		.type	RDM_LookupPID, %function
 366              	RDM_LookupPID:
 367              	.LFB7:
 334:rdm.c         **** }
 335:rdm.c         **** 
 336:rdm.c         **** const structRDMParameter* RDM_LookupPID(uint16 PID)
 337:rdm.c         **** {
 368              		.loc 1 337 0
 369              		.cfi_startproc
 370              		@ args = 0, pretend = 0, frame = 0
 371              		@ frame_needed = 0, uses_anonymous_args = 0
 372              	.LVL31:
 338:rdm.c         ****     uint8 i;
 339:rdm.c         ****     for (i = 0; i < RDMPIDStoreLength; i++)
 373              		.loc 1 339 0
 374 0000 094B     		ldr	r3, .L32
 337:rdm.c         ****     uint8 i;
 375              		.loc 1 337 0
 376 0002 30B5     		push	{r4, r5, lr}
 377              		.cfi_def_cfa_offset 12
 378              		.cfi_offset 4, -12
 379              		.cfi_offset 5, -8
 380              		.cfi_offset 14, -4
 381              		.loc 1 339 0
ARM GAS  C:\Users\jimvr\AppData\Local\Temp\ccbnzlry.s 			page 14


 382 0004 1978     		ldrb	r1, [r3]	@ zero_extendqisi2
 340:rdm.c         ****         if (RDMPIDStore[i].uiParameterID == PID)
 383              		.loc 1 340 0
 384 0006 094C     		ldr	r4, .L32+4
 339:rdm.c         ****         if (RDMPIDStore[i].uiParameterID == PID)
 385              		.loc 1 339 0
 386 0008 0022     		movs	r2, #0
 387              	.LVL32:
 388              	.L27:
 339:rdm.c         ****         if (RDMPIDStore[i].uiParameterID == PID)
 389              		.loc 1 339 0 is_stmt 0 discriminator 1
 390 000a D3B2     		uxtb	r3, r2
 391 000c 9942     		cmp	r1, r3
 392 000e 08D9     		bls	.L31
 393              		.loc 1 340 0 is_stmt 1
 394 0010 02EB4213 		add	r3, r2, r2, lsl #5
 395 0014 2344     		add	r3, r3, r4
 396 0016 1D88     		ldrh	r5, [r3]	@ unaligned
 397 0018 0132     		adds	r2, r2, #1
 398              	.LVL33:
 399 001a 8542     		cmp	r5, r0
 400 001c F5D1     		bne	.L27
 341:rdm.c         ****             return &RDMPIDStore[i];
 401              		.loc 1 341 0
 402 001e 1846     		mov	r0, r3
 403              	.LVL34:
 404 0020 30BD     		pop	{r4, r5, pc}
 405              	.LVL35:
 406              	.L31:
 342:rdm.c         ****     return NULL;
 407              		.loc 1 342 0
 408 0022 0020     		movs	r0, #0
 409              	.LVL36:
 343:rdm.c         **** }
 410              		.loc 1 343 0
 411 0024 30BD     		pop	{r4, r5, pc}
 412              	.L33:
 413 0026 00BF     		.align	2
 414              	.L32:
 415 0028 00000000 		.word	RDMPIDStoreLength
 416 002c 00000000 		.word	RDMPIDStore
 417              		.cfi_endproc
 418              	.LFE7:
 419              		.size	RDM_LookupPID, .-RDM_LookupPID
 420              		.section	.text.RDM_HandleRequest,"ax",%progbits
 421              		.align	1
 422              		.global	RDM_HandleRequest
 423              		.thumb
 424              		.thumb_func
 425              		.type	RDM_HandleRequest, %function
 426              	RDM_HandleRequest:
 427              	.LFB2:
  56:rdm.c         ****     static uint8 discMuteFlag = 0;
 428              		.loc 1 56 0
 429              		.cfi_startproc
 430              		@ args = 0, pretend = 0, frame = 40
 431              		@ frame_needed = 0, uses_anonymous_args = 0
ARM GAS  C:\Users\jimvr\AppData\Local\Temp\ccbnzlry.s 			page 15


 432              	.LVL37:
 433 0000 F0B5     		push	{r4, r5, r6, r7, lr}
 434              		.cfi_def_cfa_offset 20
 435              		.cfi_offset 4, -20
 436              		.cfi_offset 5, -16
 437              		.cfi_offset 6, -12
 438              		.cfi_offset 7, -8
 439              		.cfi_offset 14, -4
  60:rdm.c         ****         if (CYSWAP_ENDIAN16(RDMPacket->uiSubDevice) > 1) {
 440              		.loc 1 60 0
 441 0002 B24B     		ldr	r3, .L119
  56:rdm.c         ****     static uint8 discMuteFlag = 0;
 442              		.loc 1 56 0
 443 0004 8DB0     		sub	sp, sp, #52
 444              		.cfi_def_cfa_offset 72
  60:rdm.c         ****         if (CYSWAP_ENDIAN16(RDMPacket->uiSubDevice) > 1) {
 445              		.loc 1 60 0
 446 0006 1A78     		ldrb	r2, [r3]	@ zero_extendqisi2
  56:rdm.c         ****     static uint8 discMuteFlag = 0;
 447              		.loc 1 56 0
 448 0008 0446     		mov	r4, r0
 449 000a 0E46     		mov	r6, r1
 450 000c 438A     		ldrh	r3, [r0, #18]	@ unaligned
  60:rdm.c         ****         if (CYSWAP_ENDIAN16(RDMPacket->uiSubDevice) > 1) {
 451              		.loc 1 60 0
 452 000e 002A     		cmp	r2, #0
 453 0010 40F0BC80 		bne	.L35
  61:rdm.c         ****             RDM_RespondNACK(RDMPacket, E120_NR_SUB_DEVICE_OUT_OF_RANGE);
 454              		.loc 1 61 0
 455 0014 5BBA     		rev16	r3, r3
 456 0016 9BB2     		uxth	r3, r3
 457 0018 012B     		cmp	r3, #1
 458 001a 01D9     		bls	.L36
  62:rdm.c         ****             return;
 459              		.loc 1 62 0
 460 001c 0921     		movs	r1, #9
 461              	.LVL38:
 462 001e 5DE0     		b	.L109
 463              	.LVL39:
 464              	.L36:
  65:rdm.c         ****         case E120_DISC_UN_MUTE:
 465              		.loc 1 65 0
 466 0020 B0F81530 		ldrh	r3, [r0, #21]	@ unaligned
 467 0024 5BBA     		rev16	r3, r3
 468 0026 9BB2     		uxth	r3, r3
 469 0028 032B     		cmp	r3, #3
 470 002a 0ED0     		beq	.L39
 471 002c 04D8     		bhi	.L40
 472 002e 012B     		cmp	r3, #1
 473 0030 1DD0     		beq	.L41
 474 0032 022B     		cmp	r3, #2
 475 0034 12D0     		beq	.L42
 476 0036 ADE0     		b	.L38
 477              	.L40:
 478 0038 C02B     		cmp	r3, #192
 479 003a 48D0     		beq	.L43
 480 003c B3F5805F 		cmp	r3, #4096
ARM GAS  C:\Users\jimvr\AppData\Local\Temp\ccbnzlry.s 			page 16


 481 0040 4FD0     		beq	.L44
 482 0042 602B     		cmp	r3, #96
 483 0044 40F0A680 		bne	.L38
 484 0048 2AE0     		b	.L112
 485              	.L39:
  67:rdm.c         ****                 discMuteFlag = 0;
 486              		.loc 1 67 0
 487 004a C37D     		ldrb	r3, [r0, #23]	@ zero_extendqisi2
 488 004c 002B     		cmp	r3, #0
 489 004e 40F05981 		bne	.L34
 490              	.LBB2:
  68:rdm.c         ****                 memset(RDMPacket->byParameterData, 0, 2);
 491              		.loc 1 68 0
 492 0052 9F4A     		ldr	r2, .L119+4
  69:rdm.c         ****                 RDMPacket->byParameterLength = 2;
 493              		.loc 1 69 0
 494 0054 0383     		strh	r3, [r0, #24]	@ unaligned
  68:rdm.c         ****                 memset(RDMPacket->byParameterData, 0, 2);
 495              		.loc 1 68 0
 496 0056 1370     		strb	r3, [r2]
  70:rdm.c         ****                 respondedFlag = true;
 497              		.loc 1 70 0
 498 0058 0223     		movs	r3, #2
 499 005a AEE0     		b	.L108
 500              	.L42:
 501              	.LBE2:
  77:rdm.c         ****                 discMuteFlag = 1;
 502              		.loc 1 77 0
 503 005c C27D     		ldrb	r2, [r0, #23]	@ zero_extendqisi2
 504 005e 002A     		cmp	r2, #0
 505 0060 40F05081 		bne	.L34
 506              	.LBB3:
  78:rdm.c         ****                 memset(RDMPacket->byParameterData, 0, 2);
 507              		.loc 1 78 0
 508 0064 9A49     		ldr	r1, .L119+4
 509              	.LVL40:
 510 0066 0120     		movs	r0, #1
 511              	.LVL41:
 512 0068 0870     		strb	r0, [r1]
  79:rdm.c         ****                 RDMPacket->byParameterLength = 2;
 513              		.loc 1 79 0
 514 006a 2283     		strh	r2, [r4, #24]	@ unaligned
 515 006c A5E0     		b	.L108
 516              	.LVL42:
 517              	.L41:
 518              	.LBE3:
  87:rdm.c         ****                 if (memcmp(RDM.RDM_DevID, RDMPacket->byParameterData, UID_LENGTH) >= 0
 519              		.loc 1 87 0
 520 006e 984B     		ldr	r3, .L119+4
 521 0070 1B78     		ldrb	r3, [r3]	@ zero_extendqisi2
 522 0072 002B     		cmp	r3, #0
 523 0074 40F08E80 		bne	.L38
 524              	.LBB4:
  88:rdm.c         ****                     && memcmp(RDM.RDM_DevID, &RDMPacket->byParameterData[6], UID_LENGTH) <= 0) {
 525              		.loc 1 88 0
 526 0078 00F11801 		add	r1, r0, #24
 527              	.LVL43:
ARM GAS  C:\Users\jimvr\AppData\Local\Temp\ccbnzlry.s 			page 17


 528 007c 0622     		movs	r2, #6
 529 007e 9548     		ldr	r0, .L119+8
 530              	.LVL44:
 531 0080 FFF7FEFF 		bl	memcmp
 532              	.LVL45:
 533 0084 0028     		cmp	r0, #0
 534 0086 C0F28580 		blt	.L38
  89:rdm.c         ****                     RDM_DiscoveryResponse();
 535              		.loc 1 89 0
 536 008a 0622     		movs	r2, #6
 537 008c 04F11E01 		add	r1, r4, #30
 538 0090 9048     		ldr	r0, .L119+8
 539 0092 FFF7FEFF 		bl	memcmp
 540              	.LVL46:
 541 0096 0028     		cmp	r0, #0
 542 0098 7CDC     		bgt	.L38
  90:rdm.c         ****                     return;
 543              		.loc 1 90 0
 544 009a FFF7FEFF 		bl	RDM_DiscoveryResponse
 545              	.LVL47:
  91:rdm.c         ****                 }
 546              		.loc 1 91 0
 547 009e 31E1     		b	.L34
 548              	.LVL48:
 549              	.L112:
 550              	.LBE4:
  96:rdm.c         ****                 memcpy(RDMPacket->byParameterData, DEVICEINFO, sizeof(structDeviceInfo));
 551              		.loc 1 96 0
 552 00a0 037D     		ldrb	r3, [r0, #20]	@ zero_extendqisi2
 553 00a2 202B     		cmp	r3, #32
 554 00a4 16D1     		bne	.L49
  96:rdm.c         ****                 memcpy(RDMPacket->byParameterData, DEVICEINFO, sizeof(structDeviceInfo));
 555              		.loc 1 96 0 is_stmt 0 discriminator 1
 556 00a6 C37D     		ldrb	r3, [r0, #23]	@ zero_extendqisi2
 557 00a8 03BB     		cbnz	r3, .L50
 558              	.LBB5:
  97:rdm.c         ****                 RDMPacket->byParameterLength = sizeof(structDeviceInfo);
 559              		.loc 1 97 0 is_stmt 1
 560 00aa 8B4B     		ldr	r3, .L119+12
 561 00ac 00F11802 		add	r2, r0, #24
 562 00b0 1B68     		ldr	r3, [r3]
 563 00b2 03F11001 		add	r1, r3, #16
 564              	.LVL49:
 565              	.L51:
 566 00b6 53F8040B 		ldr	r0, [r3], #4	@ unaligned
 567 00ba 8B42     		cmp	r3, r1
 568 00bc 42F8040B 		str	r0, [r2], #4	@ unaligned
 569 00c0 F9D1     		bne	.L51
 570 00c2 1988     		ldrh	r1, [r3]	@ unaligned
 571 00c4 1180     		strh	r1, [r2]	@ unaligned
 572 00c6 9B78     		ldrb	r3, [r3, #2]	@ zero_extendqisi2
 573 00c8 9370     		strb	r3, [r2, #2]
  98:rdm.c         ****                 respondedFlag = true;
 574              		.loc 1 98 0
 575 00ca 1323     		movs	r3, #19
 576 00cc 75E0     		b	.L108
 577              	.LVL50:
ARM GAS  C:\Users\jimvr\AppData\Local\Temp\ccbnzlry.s 			page 18


 578              	.L43:
 579              	.LBE5:
 130:rdm.c         ****                 char softLabel[33];
 580              		.loc 1 130 0
 581 00ce 037D     		ldrb	r3, [r0, #20]	@ zero_extendqisi2
 582 00d0 202B     		cmp	r3, #32
 583 00d2 46D0     		beq	.L113
 584              	.LVL51:
 585              	.L49:
 100:rdm.c         ****                 RDM_RespondNACK(RDMPacket, E120_NR_UNSUPPORTED_COMMAND_CLASS);
 586              		.loc 1 100 0
 587 00d4 302B     		cmp	r3, #48
 588 00d6 09D1     		bne	.L50
 589              	.L55:
 101:rdm.c         ****                 return;
 590              		.loc 1 101 0
 591 00d8 0521     		movs	r1, #5
 592              	.L110:
 593 00da 2046     		mov	r0, r4
 594              	.LVL52:
 595              	.L109:
 596 00dc FFF7FEFF 		bl	RDM_RespondNACK
 597              	.LVL53:
 102:rdm.c         ****             } else {
 598              		.loc 1 102 0
 599 00e0 10E1     		b	.L34
 600              	.LVL54:
 601              	.L44:
 110:rdm.c         ****                 RDMPacket->byParameterData[0] = RDM_Identify;
 602              		.loc 1 110 0
 603 00e2 037D     		ldrb	r3, [r0, #20]	@ zero_extendqisi2
 604 00e4 202B     		cmp	r3, #32
 605 00e6 03D0     		beq	.L114
 114:rdm.c         ****                 if (RDMPacket->byParameterData[0] >= 0 && RDMPacket->byParameterData[0] <= 1) {
 606              		.loc 1 114 0
 607 00e8 302B     		cmp	r3, #48
 608 00ea 09D0     		beq	.L115
 609              	.LVL55:
 610              	.L50:
 104:rdm.c         ****                 return;
 611              		.loc 1 104 0
 612 00ec 0121     		movs	r1, #1
 613 00ee F4E7     		b	.L110
 614              	.LVL56:
 615              	.L114:
 110:rdm.c         ****                 RDMPacket->byParameterData[0] = RDM_Identify;
 616              		.loc 1 110 0 discriminator 1
 617 00f0 C37D     		ldrb	r3, [r0, #23]	@ zero_extendqisi2
 618 00f2 002B     		cmp	r3, #0
 619 00f4 FAD1     		bne	.L50
 111:rdm.c         ****                 RDMPacket->byParameterLength = 1;
 620              		.loc 1 111 0
 621 00f6 794B     		ldr	r3, .L119+16
 622 00f8 1B78     		ldrb	r3, [r3]	@ zero_extendqisi2
 623 00fa 0376     		strb	r3, [r0, #24]
 112:rdm.c         ****                 respondedFlag = true;
 624              		.loc 1 112 0
ARM GAS  C:\Users\jimvr\AppData\Local\Temp\ccbnzlry.s 			page 19


 625 00fc 0123     		movs	r3, #1
 626 00fe 5CE0     		b	.L108
 627              	.L115:
 114:rdm.c         ****                 if (RDMPacket->byParameterData[0] >= 0 && RDMPacket->byParameterData[0] <= 1) {
 628              		.loc 1 114 0 discriminator 1
 629 0100 C37D     		ldrb	r3, [r0, #23]	@ zero_extendqisi2
 630 0102 012B     		cmp	r3, #1
 631 0104 F2D1     		bne	.L50
 115:rdm.c         ****                     RDM_Identify = RDMPacket->byParameterData[0];
 632              		.loc 1 115 0
 633 0106 037E     		ldrb	r3, [r0, #24]	@ zero_extendqisi2
 634 0108 012B     		cmp	r3, #1
 635 010a 28D8     		bhi	.L53
 116:rdm.c         ****                     RDMPacket->byParameterLength = 0;
 636              		.loc 1 116 0
 637 010c 734A     		ldr	r2, .L119+16
 638 010e 03F00103 		and	r3, r3, #1
 639 0112 1370     		strb	r3, [r2]
 117:rdm.c         ****                     respondedFlag = true;
 640              		.loc 1 117 0
 641 0114 0023     		movs	r3, #0
 642 0116 50E0     		b	.L108
 643              	.LVL57:
 644              	.L64:
 645              	.LBB6:
 184:rdm.c         ****                     hasCustomPID = true;
 646              		.loc 1 184 0
 647 0118 03EB4312 		add	r2, r3, r3, lsl #5
 648 011c 0244     		add	r2, r2, r0
 649 011e B2F90070 		ldrsh	r7, [r2]	@ unaligned
 650 0122 002F     		cmp	r7, #0
 651 0124 03DA     		bge	.L63
 184:rdm.c         ****                     hasCustomPID = true;
 652              		.loc 1 184 0 is_stmt 0 discriminator 1
 653 0126 D27F     		ldrb	r2, [r2, #31]	@ zero_extendqisi2
 185:rdm.c         **** 
 654              		.loc 1 185 0 is_stmt 1 discriminator 1
 655 0128 002A     		cmp	r2, #0
 656 012a 08BF     		it	eq
 657 012c 0121     		moveq	r1, #1
 658              	.LVL58:
 659              	.L63:
 660 012e 0133     		adds	r3, r3, #1
 661              	.LVL59:
 662              	.L74:
 183:rdm.c         ****                 if (RDMPIDStore[i].uiParameterID >= 0x8000 && !RDMPIDStore[i].blIsHidden)
 663              		.loc 1 183 0 discriminator 1
 664 0130 DAB2     		uxtb	r2, r3
 665 0132 9542     		cmp	r5, r2
 666 0134 F0D8     		bhi	.L64
 187:rdm.c         ****                 RDM_RespondNACK(RDMPacket, E120_NR_UNKNOWN_PID);
 667              		.loc 1 187 0
 668 0136 0029     		cmp	r1, #0
 669 0138 00F0DC80 		beq	.L72
 670              	.LBE6:
 192:rdm.c         ****                 const uint16 PID = UINT8_TO_UINT16(RDMPacket->byParameterData[0], RDMPacket->byPara
 671              		.loc 1 192 0
ARM GAS  C:\Users\jimvr\AppData\Local\Temp\ccbnzlry.s 			page 20


 672 013c 237D     		ldrb	r3, [r4, #20]	@ zero_extendqisi2
 673              	.LVL60:
 674 013e 202B     		cmp	r3, #32
 675 0140 C8D1     		bne	.L49
 192:rdm.c         ****                 const uint16 PID = UINT8_TO_UINT16(RDMPacket->byParameterData[0], RDMPacket->byPara
 676              		.loc 1 192 0 is_stmt 0 discriminator 1
 677 0142 E37D     		ldrb	r3, [r4, #23]	@ zero_extendqisi2
 678 0144 022B     		cmp	r3, #2
 679 0146 D1D1     		bne	.L50
 680              	.LBB7:
 193:rdm.c         ****                 const structRDMParameter* RDMParameter = RDM_LookupPID(PID);
 681              		.loc 1 193 0 is_stmt 1
 682 0148 637E     		ldrb	r3, [r4, #25]	@ zero_extendqisi2
 683 014a 277E     		ldrb	r7, [r4, #24]	@ zero_extendqisi2
 684 014c 43EA0727 		orr	r7, r3, r7, lsl #8
 685 0150 3FB2     		sxth	r7, r7
 686              	.LVL61:
 194:rdm.c         **** 
 687              		.loc 1 194 0
 688 0152 B8B2     		uxth	r0, r7
 689 0154 FFF7FEFF 		bl	RDM_LookupPID
 690              	.LVL62:
 196:rdm.c         ****                     uint8 descLen = strlen(RDMParameter->strDesc);
 691              		.loc 1 196 0
 692 0158 0546     		mov	r5, r0
 693 015a 0028     		cmp	r0, #0
 694 015c 2FD1     		bne	.L116
 695              	.LVL63:
 696              	.L53:
 697              	.LBE7:
 120:rdm.c         ****                     return;
 698              		.loc 1 120 0
 699 015e 0621     		movs	r1, #6
 700 0160 BBE7     		b	.L110
 701              	.LVL64:
 702              	.L113:
 130:rdm.c         ****                 char softLabel[33];
 703              		.loc 1 130 0 discriminator 1
 704 0162 C37D     		ldrb	r3, [r0, #23]	@ zero_extendqisi2
 705 0164 002B     		cmp	r3, #0
 706 0166 C1D1     		bne	.L50
 707              	.LBB9:
 133:rdm.c         **** 
 708              		.loc 1 133 0
 709 0168 4123     		movs	r3, #65
 710 016a 0093     		str	r3, [sp]
 711 016c 0123     		movs	r3, #1
 712 016e 1A46     		mov	r2, r3
 713 0170 5B49     		ldr	r1, .L119+20
 714              	.LVL65:
 715 0172 03A8     		add	r0, sp, #12
 716              	.LVL66:
 717 0174 FFF7FEFF 		bl	sprintf
 718              	.LVL67:
 135:rdm.c         ****                 RDMPacket->byParameterLength = strlen(softLabel);
 719              		.loc 1 135 0
 720 0178 03A9     		add	r1, sp, #12
ARM GAS  C:\Users\jimvr\AppData\Local\Temp\ccbnzlry.s 			page 21


 721 017a 04F11800 		add	r0, r4, #24
 722 017e FFF7FEFF 		bl	strcpy
 723              	.LVL68:
 136:rdm.c         ****                 respondedFlag = true;
 724              		.loc 1 136 0
 725 0182 03A8     		add	r0, sp, #12
 726 0184 FFF7FEFF 		bl	strlen
 727              	.LVL69:
 728 0188 E075     		strb	r0, [r4, #23]
 729              	.LVL70:
 730              	.LBE9:
 145:rdm.c         ****         }
 731              		.loc 1 145 0
 732 018a 4DE0     		b	.L62
 733              	.LVL71:
 734              	.L35:
 147:rdm.c         ****         switch (CYSWAP_ENDIAN16(RDMPacket->uiParameterID)) {
 735              		.loc 1 147 0
 736 018c B3F5807F 		cmp	r3, #256
 737 0190 40F0B880 		bne	.L34
 738              	.LVL72:
 739              	.L38:
 158:rdm.c         ****         case E120_SUPPORTED_PARAMETERS:
 740              		.loc 1 158 0
 741 0194 B4F81500 		ldrh	r0, [r4, #21]	@ unaligned
 742 0198 40BA     		rev16	r0, r0
 743 019a 80B2     		uxth	r0, r0
 744 019c 5028     		cmp	r0, #80
 745 019e 68D1     		bne	.L117
 160:rdm.c         ****                 uint8 i, j;
 746              		.loc 1 160 0
 747 01a0 237D     		ldrb	r3, [r4, #20]	@ zero_extendqisi2
 748 01a2 202B     		cmp	r3, #32
 749 01a4 96D1     		bne	.L49
 160:rdm.c         ****                 uint8 i, j;
 750              		.loc 1 160 0 is_stmt 0 discriminator 1
 751 01a6 E27D     		ldrb	r2, [r4, #23]	@ zero_extendqisi2
 752 01a8 002A     		cmp	r2, #0
 753 01aa 9FD1     		bne	.L50
 754              	.LBB10:
 162:rdm.c         ****                     if (!RDMPIDStore[i].blIsHidden) {
 755              		.loc 1 162 0 is_stmt 1
 756 01ac 4D4B     		ldr	r3, .L119+24
 163:rdm.c         ****                         RDMPacket->byParameterData[j + 0] = HI8(RDMPIDStore[i].uiParameterID);
 757              		.loc 1 163 0
 758 01ae 4E4F     		ldr	r7, .L119+28
 162:rdm.c         ****                     if (!RDMPIDStore[i].blIsHidden) {
 759              		.loc 1 162 0
 760 01b0 1D78     		ldrb	r5, [r3]	@ zero_extendqisi2
 761 01b2 1346     		mov	r3, r2
 762              	.L58:
 763              	.LVL73:
 162:rdm.c         ****                     if (!RDMPIDStore[i].blIsHidden) {
 764              		.loc 1 162 0 is_stmt 0 discriminator 1
 765 01b4 D1B2     		uxtb	r1, r2
 766 01b6 8D42     		cmp	r5, r1
 767 01b8 48D8     		bhi	.L61
ARM GAS  C:\Users\jimvr\AppData\Local\Temp\ccbnzlry.s 			page 22


 768              	.LVL74:
 769              	.L108:
 169:rdm.c         ****             } else if (RDMPacket->byCommandClass == E120_SET_COMMAND) {
 770              		.loc 1 169 0 is_stmt 1
 771 01ba E375     		strb	r3, [r4, #23]
 772              	.LBE10:
 177:rdm.c         **** 
 773              		.loc 1 177 0
 774 01bc 34E0     		b	.L62
 775              	.LVL75:
 776              	.L116:
 777              	.LBB11:
 196:rdm.c         ****                     uint8 descLen = strlen(RDMParameter->strDesc);
 778              		.loc 1 196 0 discriminator 1
 779 01be 002F     		cmp	r7, #0
 780 01c0 CDDA     		bge	.L53
 781              	.LBB8:
 197:rdm.c         ****                     RDMPacket->byParameterData[2] = (RDMParameter->byGetLength > RDMParameter->bySe
 782              		.loc 1 197 0
 783 01c2 D0F80200 		ldr	r0, [r0, #2]	@ unaligned
 784              	.LVL76:
 785 01c6 FFF7FEFF 		bl	strlen
 786              	.LVL77:
 198:rdm.c         ****                     RDMPacket->byParameterData[3] = RDMParameter->byDataType;
 787              		.loc 1 198 0
 788 01ca AA7D     		ldrb	r2, [r5, #22]	@ zero_extendqisi2
 789 01cc 6B7D     		ldrb	r3, [r5, #21]	@ zero_extendqisi2
 197:rdm.c         ****                     RDMPacket->byParameterData[2] = (RDMParameter->byGetLength > RDMParameter->bySe
 790              		.loc 1 197 0
 791 01ce C7B2     		uxtb	r7, r0
 792              	.LVL78:
 198:rdm.c         ****                     RDMPacket->byParameterData[3] = RDMParameter->byDataType;
 793              		.loc 1 198 0
 794 01d0 9342     		cmp	r3, r2
 795 01d2 38BF     		it	cc
 796 01d4 1346     		movcc	r3, r2
 797 01d6 A376     		strb	r3, [r4, #26]
 199:rdm.c         ****                     RDMPacket->byParameterData[4] = (RDMParameter->getRequestHandler ? E120_CC_GET 
 798              		.loc 1 199 0
 799 01d8 AB7C     		ldrb	r3, [r5, #18]	@ zero_extendqisi2
 208:rdm.c         ****                     RDMPacket->byParameterLength = 20 + descLen;
 800              		.loc 1 208 0
 801 01da 04F12C00 		add	r0, r4, #44
 199:rdm.c         ****                     RDMPacket->byParameterData[4] = (RDMParameter->getRequestHandler ? E120_CC_GET 
 802              		.loc 1 199 0
 803 01de E376     		strb	r3, [r4, #27]
 201:rdm.c         ****                     RDMPacket->byParameterData[5] = 0;
 804              		.loc 1 201 0
 805 01e0 D5F81B30 		ldr	r3, [r5, #27]	@ unaligned
 200:rdm.c         ****                         | (RDMParameter->setRequestHandler ? E120_CC_SET : 0);
 806              		.loc 1 200 0
 807 01e4 D5F81720 		ldr	r2, [r5, #23]	@ unaligned
 808 01e8 002B     		cmp	r3, #0
 809 01ea 14BF     		ite	ne
 810 01ec 0223     		movne	r3, #2
 811 01ee 0023     		moveq	r3, #0
 812 01f0 002A     		cmp	r2, #0
ARM GAS  C:\Users\jimvr\AppData\Local\Temp\ccbnzlry.s 			page 23


 813 01f2 18BF     		it	ne
 814 01f4 43F00103 		orrne	r3, r3, #1
 815 01f8 2377     		strb	r3, [r4, #28]
 202:rdm.c         ****                     RDMPacket->byParameterData[6] = RDMParameter->byUnits;
 816              		.loc 1 202 0
 817 01fa 0023     		movs	r3, #0
 818 01fc 6377     		strb	r3, [r4, #29]
 203:rdm.c         ****                     RDMPacket->byParameterData[7] = RDMParameter->byPrefix;
 819              		.loc 1 203 0
 820 01fe EB7C     		ldrb	r3, [r5, #19]	@ zero_extendqisi2
 208:rdm.c         ****                     RDMPacket->byParameterLength = 20 + descLen;
 821              		.loc 1 208 0
 822 0200 3A46     		mov	r2, r7
 203:rdm.c         ****                     RDMPacket->byParameterData[7] = RDMParameter->byPrefix;
 823              		.loc 1 203 0
 824 0202 A377     		strb	r3, [r4, #30]
 204:rdm.c         ****                     memcpy(&RDMPacket->byParameterData[8], &RDMParameter->ulMinValue, sizeof(uint32
 825              		.loc 1 204 0
 826 0204 2B7D     		ldrb	r3, [r5, #20]	@ zero_extendqisi2
 827 0206 E377     		strb	r3, [r4, #31]
 205:rdm.c         ****                     memcpy(&RDMPacket->byParameterData[12], &RDMParameter->ulMaxValue, sizeof(uint3
 828              		.loc 1 205 0
 829 0208 D5F80630 		ldr	r3, [r5, #6]	@ unaligned
 830 020c 2362     		str	r3, [r4, #32]	@ unaligned
 206:rdm.c         ****                     memcpy(&RDMPacket->byParameterData[16], &RDMParameter->ulDefValue, sizeof(uint3
 831              		.loc 1 206 0
 832 020e D5F80A30 		ldr	r3, [r5, #10]	@ unaligned
 833 0212 6362     		str	r3, [r4, #36]	@ unaligned
 207:rdm.c         ****                     memcpy(&RDMPacket->byParameterData[20], RDMParameter->strDesc, descLen);
 834              		.loc 1 207 0
 835 0214 D5F80E30 		ldr	r3, [r5, #14]	@ unaligned
 836 0218 A362     		str	r3, [r4, #40]	@ unaligned
 208:rdm.c         ****                     RDMPacket->byParameterLength = 20 + descLen;
 837              		.loc 1 208 0
 838 021a D5F80210 		ldr	r1, [r5, #2]	@ unaligned
 839 021e FFF7FEFF 		bl	memcpy
 840              	.LVL79:
 209:rdm.c         ****                 } else {
 841              		.loc 1 209 0
 842 0222 07F11402 		add	r2, r7, #20
 843 0226 E275     		strb	r2, [r4, #23]
 844              	.LVL80:
 845              	.L62:
 846              	.LBE8:
 847              	.LBE11:
 262:rdm.c         ****         RDMPacket->byResponseType = E120_RESPONSE_TYPE_ACK;
 848              		.loc 1 262 0
 849 0228 012E     		cmp	r6, #1
 850 022a 6BD1     		bne	.L34
 263:rdm.c         ****         RDM_RespondMsg(RDMPacket);
 851              		.loc 1 263 0
 852 022c 0023     		movs	r3, #0
 853 022e 2374     		strb	r3, [r4, #16]
 264:rdm.c         ****         if (RDM_pendingDequeue && queue_count()) {
 854              		.loc 1 264 0
 855 0230 2046     		mov	r0, r4
 856 0232 FFF7FEFF 		bl	RDM_RespondMsg
ARM GAS  C:\Users\jimvr\AppData\Local\Temp\ccbnzlry.s 			page 24


 857              	.LVL81:
 265:rdm.c         ****             queue_dequeue();
 858              		.loc 1 265 0
 859 0236 2D4B     		ldr	r3, .L119+32
 860 0238 1B78     		ldrb	r3, [r3]	@ zero_extendqisi2
 861 023a 002B     		cmp	r3, #0
 862 023c 62D0     		beq	.L34
 265:rdm.c         ****             queue_dequeue();
 863              		.loc 1 265 0 is_stmt 0 discriminator 1
 864 023e FFF7FEFF 		bl	queue_count
 865              	.LVL82:
 866 0242 0028     		cmp	r0, #0
 867 0244 5ED0     		beq	.L34
 266:rdm.c         ****         }
 868              		.loc 1 266 0 is_stmt 1
 869 0246 FFF7FEFF 		bl	queue_dequeue
 870              	.LVL83:
 871 024a 5BE0     		b	.L34
 872              	.LVL84:
 873              	.L61:
 874              	.LBB12:
 163:rdm.c         ****                         RDMPacket->byParameterData[j + 0] = HI8(RDMPIDStore[i].uiParameterID);
 875              		.loc 1 163 0
 876 024c 02EB4211 		add	r1, r2, r2, lsl #5
 877 0250 3944     		add	r1, r1, r7
 878 0252 C87F     		ldrb	r0, [r1, #31]	@ zero_extendqisi2
 879 0254 38B9     		cbnz	r0, .L59
 164:rdm.c         ****                         RDMPacket->byParameterData[j + 1] = LO8(RDMPIDStore[i].uiParameterID);
 880              		.loc 1 164 0
 881 0256 0888     		ldrh	r0, [r1]	@ unaligned
 882 0258 E118     		adds	r1, r4, r3
 883 025a 4FEA102E 		lsr	lr, r0, #8
 884 025e 81F818E0 		strb	lr, [r1, #24]
 165:rdm.c         ****                     } else
 885              		.loc 1 165 0
 886 0262 4876     		strb	r0, [r1, #25]
 887 0264 01E0     		b	.L60
 888              	.L59:
 167:rdm.c         ****                 }
 889              		.loc 1 167 0
 890 0266 023B     		subs	r3, r3, #2
 891              	.LVL85:
 892 0268 DBB2     		uxtb	r3, r3
 893              	.LVL86:
 894              	.L60:
 162:rdm.c         ****                     if (!RDMPIDStore[i].blIsHidden) {
 895              		.loc 1 162 0 discriminator 2
 896 026a 0233     		adds	r3, r3, #2
 897              	.LVL87:
 898 026c DBB2     		uxtb	r3, r3
 899              	.LVL88:
 900 026e 0132     		adds	r2, r2, #1
 901              	.LVL89:
 902 0270 A0E7     		b	.L58
 903              	.LVL90:
 904              	.L117:
 905              	.LBE12:
ARM GAS  C:\Users\jimvr\AppData\Local\Temp\ccbnzlry.s 			page 25


 158:rdm.c         ****         case E120_SUPPORTED_PARAMETERS:
 906              		.loc 1 158 0
 907 0272 5128     		cmp	r0, #81
 908 0274 40D0     		beq	.L118
 909              	.LBB13:
 224:rdm.c         ****             if (RDMParameter != NULL) {
 910              		.loc 1 224 0
 911 0276 FFF7FEFF 		bl	RDM_LookupPID
 912              	.LVL91:
 913 027a 237D     		ldrb	r3, [r4, #20]	@ zero_extendqisi2
 225:rdm.c         ****                 if (RDMPacket->byCommandClass == E120_GET_COMMAND) {
 914              		.loc 1 225 0
 915 027c 0028     		cmp	r0, #0
 916 027e 37D0     		beq	.L69
 226:rdm.c         ****                     if (RDMParameter->getRequestHandler != NULL)
 917              		.loc 1 226 0
 918 0280 202B     		cmp	r3, #32
 919 0282 0AD1     		bne	.L70
 227:rdm.c         ****                         if (RDMParameter->byGetLength == RDMPacket->byParameterLength) {
 920              		.loc 1 227 0
 921 0284 D0F81730 		ldr	r3, [r0, #23]	@ unaligned
 922 0288 002B     		cmp	r3, #0
 923 028a 3FF425AF 		beq	.L55
 228:rdm.c         ****                             if (!RDMParameter->getRequestHandler(RDMPacket, PacketDest))
 924              		.loc 1 228 0
 925 028e 417D     		ldrb	r1, [r0, #21]	@ zero_extendqisi2
 926 0290 E27D     		ldrb	r2, [r4, #23]	@ zero_extendqisi2
 927 0292 9142     		cmp	r1, r2
 928 0294 7FF42AAF 		bne	.L50
 929 0298 12E0     		b	.L71
 930              	.L70:
 239:rdm.c         ****                     if (RDMParameter->setRequestHandler != NULL)
 931              		.loc 1 239 0
 932 029a 302B     		cmp	r3, #48
 933 029c C4D1     		bne	.L62
 240:rdm.c         ****                         if (RDMParameter->bySetLength == RDMPacket->byParameterLength
 934              		.loc 1 240 0
 935 029e D0F81B30 		ldr	r3, [r0, #27]	@ unaligned
 936 02a2 002B     		cmp	r3, #0
 937 02a4 3FF418AF 		beq	.L55
 241:rdm.c         ****                             || (RDMParameter->blIsText && RDMPacket->byParameterLength <= RDMParame
 938              		.loc 1 241 0
 939 02a8 817D     		ldrb	r1, [r0, #22]	@ zero_extendqisi2
 940 02aa E27D     		ldrb	r2, [r4, #23]	@ zero_extendqisi2
 941 02ac 9142     		cmp	r1, r2
 942 02ae 07D0     		beq	.L71
 242:rdm.c         ****                             if (!RDMParameter->setRequestHandler(RDMPacket, PacketDest))
 943              		.loc 1 242 0
 944 02b0 90F82000 		ldrb	r0, [r0, #32]	@ zero_extendqisi2
 945              	.LVL92:
 946 02b4 0028     		cmp	r0, #0
 947 02b6 3FF419AF 		beq	.L50
 242:rdm.c         ****                             if (!RDMParameter->setRequestHandler(RDMPacket, PacketDest))
 948              		.loc 1 242 0 is_stmt 0 discriminator 1
 949 02ba 9142     		cmp	r1, r2
 950 02bc FFF416AF 		bcc	.L50
 951              	.L71:
ARM GAS  C:\Users\jimvr\AppData\Local\Temp\ccbnzlry.s 			page 26


 243:rdm.c         ****                                 return;
 952              		.loc 1 243 0 is_stmt 1
 953 02c0 3146     		mov	r1, r6
 954 02c2 2046     		mov	r0, r4
 955 02c4 9847     		blx	r3
 956              	.LVL93:
 957 02c6 0028     		cmp	r0, #0
 958 02c8 AED1     		bne	.L62
 959 02ca 1BE0     		b	.L34
 960              	.L120:
 961              		.align	2
 962              	.L119:
 963 02cc 00000000 		.word	isSubDevice
 964 02d0 00000000 		.word	.LANCHOR1
 965 02d4 00000000 		.word	RDM
 966 02d8 00000000 		.word	DEVICEINFO
 967 02dc 00000000 		.word	RDM_Identify
 968 02e0 00000000 		.word	.LC1
 969 02e4 00000000 		.word	RDMPIDStoreLength
 970 02e8 00000000 		.word	RDMPIDStore
 971 02ec 00000000 		.word	RDM_pendingDequeue
 972              	.LVL94:
 973              	.L69:
 255:rdm.c         ****                     RDM_RespondNACK(RDMPacket, E120_NR_UNKNOWN_PID);
 974              		.loc 1 255 0
 975 02f0 102B     		cmp	r3, #16
 976 02f2 07D0     		beq	.L34
 977              	.LVL95:
 978              	.L72:
 979              	.LBE13:
 980              	.LBB14:
 188:rdm.c         ****                 return;
 981              		.loc 1 188 0
 982 02f4 0021     		movs	r1, #0
 983 02f6 F0E6     		b	.L110
 984              	.L118:
 183:rdm.c         ****                 if (RDMPIDStore[i].uiParameterID >= 0x8000 && !RDMPIDStore[i].blIsHidden)
 985              		.loc 1 183 0
 986 02f8 034B     		ldr	r3, .L121
 184:rdm.c         ****                     hasCustomPID = true;
 987              		.loc 1 184 0
 988 02fa 0448     		ldr	r0, .L121+4
 183:rdm.c         ****                 if (RDMPIDStore[i].uiParameterID >= 0x8000 && !RDMPIDStore[i].blIsHidden)
 989              		.loc 1 183 0
 990 02fc 1D78     		ldrb	r5, [r3]	@ zero_extendqisi2
 991 02fe 0023     		movs	r3, #0
 992 0300 1946     		mov	r1, r3
 993 0302 15E7     		b	.L74
 994              	.LVL96:
 995              	.L34:
 996              	.LBE14:
 269:rdm.c         **** 
 997              		.loc 1 269 0
 998 0304 0DB0     		add	sp, sp, #52
 999              		.cfi_def_cfa_offset 20
 1000              		@ sp needed
 1001 0306 F0BD     		pop	{r4, r5, r6, r7, pc}
ARM GAS  C:\Users\jimvr\AppData\Local\Temp\ccbnzlry.s 			page 27


 1002              	.LVL97:
 1003              	.L122:
 1004              		.align	2
 1005              	.L121:
 1006 0308 00000000 		.word	RDMPIDStoreLength
 1007 030c 00000000 		.word	RDMPIDStore
 1008              		.cfi_endproc
 1009              	.LFE2:
 1010              		.size	RDM_HandleRequest, .-RDM_HandleRequest
 1011              		.section	.text.RDM_ResetState,"ax",%progbits
 1012              		.align	1
 1013              		.global	RDM_ResetState
 1014              		.thumb
 1015              		.thumb_func
 1016              		.type	RDM_ResetState, %function
 1017              	RDM_ResetState:
 1018              	.LFB8:
 344:rdm.c         **** 
 345:rdm.c         **** void RDM_ResetState()
 346:rdm.c         **** {
 1019              		.loc 1 346 0
 1020              		.cfi_startproc
 1021              		@ args = 0, pretend = 0, frame = 0
 1022              		@ frame_needed = 0, uses_anonymous_args = 0
 1023              		@ link register save eliminated.
 347:rdm.c         ****     state = SUB_START_CODE;
 1024              		.loc 1 347 0
 1025 0000 094A     		ldr	r2, .L124
 1026 0002 0123     		movs	r3, #1
 1027 0004 1370     		strb	r3, [r2]
 348:rdm.c         ****     paramCount = 0;
 1028              		.loc 1 348 0
 1029 0006 094A     		ldr	r2, .L124+4
 1030 0008 0021     		movs	r1, #0
 1031 000a 1170     		strb	r1, [r2]
 349:rdm.c         ****     calculatedChecksum = 0;
 1032              		.loc 1 349 0
 1033 000c 084A     		ldr	r2, .L124+8
 350:rdm.c         ****     receivedChecksum = 0;
 351:rdm.c         ****     isDevice = true;
 352:rdm.c         ****     isBroadcast = true;
 353:rdm.c         ****     isVendorcast = true;
 354:rdm.c         ****     memset(&RDMResPacket, 0, sizeof(structRDMPacket));
 1034              		.loc 1 354 0
 1035 000e 0948     		ldr	r0, .L124+12
 349:rdm.c         ****     calculatedChecksum = 0;
 1036              		.loc 1 349 0
 1037 0010 1180     		strh	r1, [r2]	@ movhi
 350:rdm.c         ****     receivedChecksum = 0;
 1038              		.loc 1 350 0
 1039 0012 094A     		ldr	r2, .L124+16
 1040 0014 1180     		strh	r1, [r2]	@ movhi
 351:rdm.c         ****     isBroadcast = true;
 1041              		.loc 1 351 0
 1042 0016 094A     		ldr	r2, .L124+20
 1043 0018 1370     		strb	r3, [r2]
 352:rdm.c         ****     isVendorcast = true;
ARM GAS  C:\Users\jimvr\AppData\Local\Temp\ccbnzlry.s 			page 28


 1044              		.loc 1 352 0
 1045 001a 094A     		ldr	r2, .L124+24
 1046 001c 1370     		strb	r3, [r2]
 353:rdm.c         ****     memset(&RDMResPacket, 0, sizeof(structRDMPacket));
 1047              		.loc 1 353 0
 1048 001e 094A     		ldr	r2, .L124+28
 1049 0020 1370     		strb	r3, [r2]
 1050              		.loc 1 354 0
 1051 0022 FF22     		movs	r2, #255
 1052 0024 FFF7FEBF 		b	memset
 1053              	.LVL98:
 1054              	.L125:
 1055              		.align	2
 1056              	.L124:
 1057 0028 00000000 		.word	state
 1058 002c 00000000 		.word	paramCount
 1059 0030 00000000 		.word	calculatedChecksum
 1060 0034 00000000 		.word	RDMResPacket
 1061 0038 00000000 		.word	receivedChecksum
 1062 003c 00000000 		.word	isDevice
 1063 0040 00000000 		.word	isBroadcast
 1064 0044 00000000 		.word	isVendorcast
 1065              		.cfi_endproc
 1066              	.LFE8:
 1067              		.size	RDM_ResetState, .-RDM_ResetState
 1068              		.section	.text.RDM_AcceptByte,"ax",%progbits
 1069              		.align	1
 1070              		.global	RDM_AcceptByte
 1071              		.thumb
 1072              		.thumb_func
 1073              		.type	RDM_AcceptByte, %function
 1074              	RDM_AcceptByte:
 1075              	.LFB9:
 355:rdm.c         **** }
 356:rdm.c         **** 
 357:rdm.c         **** void RDM_AcceptByte(uint8 dataByte)
 358:rdm.c         **** {
 1076              		.loc 1 358 0
 1077              		.cfi_startproc
 1078              		@ args = 0, pretend = 0, frame = 0
 1079              		@ frame_needed = 0, uses_anonymous_args = 0
 1080              	.LVL99:
 1081 0000 70B5     		push	{r4, r5, r6, lr}
 1082              		.cfi_def_cfa_offset 16
 1083              		.cfi_offset 4, -16
 1084              		.cfi_offset 5, -12
 1085              		.cfi_offset 6, -8
 1086              		.cfi_offset 14, -4
 359:rdm.c         ****     if (state >= SUB_START_CODE && state < CHECKSUM)
 1087              		.loc 1 359 0
 1088 0002 704C     		ldr	r4, .L173
 1089 0004 2378     		ldrb	r3, [r4]	@ zero_extendqisi2
 1090 0006 013B     		subs	r3, r3, #1
 1091 0008 DAB2     		uxtb	r2, r3
 1092 000a 0B2A     		cmp	r2, #11
 360:rdm.c         ****         calculatedChecksum += dataByte;
 1093              		.loc 1 360 0
ARM GAS  C:\Users\jimvr\AppData\Local\Temp\ccbnzlry.s 			page 29


 1094 000c 9FBF     		itttt	ls
 1095 000e 6E49     		ldrls	r1, .L173+4
 1096 0010 0A88     		ldrhls	r2, [r1]
 1097 0012 1218     		addls	r2, r2, r0
 1098 0014 0A80     		strhls	r2, [r1]	@ movhi
 361:rdm.c         ****     switch (state) {
 1099              		.loc 1 361 0
 1100 0016 0C2B     		cmp	r3, #12
 1101 0018 00F2D280 		bhi	.L126
 1102 001c DFE803F0 		tbb	[pc, r3]
 1103              	.L130:
 1104 0020 07       		.byte	(.L129-.L130)/2
 1105 0021 0E       		.byte	(.L131-.L130)/2
 1106 0022 14       		.byte	(.L132-.L130)/2
 1107 0023 44       		.byte	(.L133-.L130)/2
 1108 0024 53       		.byte	(.L134-.L130)/2
 1109 0025 57       		.byte	(.L135-.L130)/2
 1110 0026 5B       		.byte	(.L136-.L130)/2
 1111 0027 61       		.byte	(.L137-.L130)/2
 1112 0028 74       		.byte	(.L138-.L130)/2
 1113 0029 78       		.byte	(.L139-.L130)/2
 1114 002a 8F       		.byte	(.L140-.L130)/2
 1115 002b 98       		.byte	(.L141-.L130)/2
 1116 002c A8       		.byte	(.L142-.L130)/2
 1117 002d 00       		.p2align 1
 1118              	.L129:
 362:rdm.c         ****     case IDLE: {
 363:rdm.c         ****     } break;
 364:rdm.c         **** 
 365:rdm.c         ****     case SUB_START_CODE: {
 366:rdm.c         ****         if (dataByte == E120_SC_SUB_MESSAGE) {
 1119              		.loc 1 366 0
 1120 002e 0128     		cmp	r0, #1
 1121 0030 40F0C680 		bne	.L126
 367:rdm.c         ****             RDMResPacket.bySubStartCode = E120_SC_SUB_MESSAGE;
 1122              		.loc 1 367 0
 1123 0034 654B     		ldr	r3, .L173+8
 1124 0036 5870     		strb	r0, [r3, #1]
 368:rdm.c         ****             state = MESSAGE_LENGTH;
 1125              		.loc 1 368 0
 1126 0038 0223     		movs	r3, #2
 1127 003a 97E0     		b	.L172
 1128              	.L131:
 369:rdm.c         ****         }
 370:rdm.c         ****     } break;
 371:rdm.c         **** 
 372:rdm.c         ****     case MESSAGE_LENGTH: {
 373:rdm.c         ****         if (dataByte >= 24) {
 1129              		.loc 1 373 0
 1130 003c 1728     		cmp	r0, #23
 1131 003e 27D9     		bls	.L144
 374:rdm.c         ****             RDMResPacket.byMessageLength = dataByte;
 1132              		.loc 1 374 0
 1133 0040 624B     		ldr	r3, .L173+8
 1134 0042 9870     		strb	r0, [r3, #2]
 375:rdm.c         ****             state = DESTINATION_UID;
 1135              		.loc 1 375 0
ARM GAS  C:\Users\jimvr\AppData\Local\Temp\ccbnzlry.s 			page 30


 1136 0044 0323     		movs	r3, #3
 1137 0046 91E0     		b	.L172
 1138              	.L132:
 376:rdm.c         ****         } else
 377:rdm.c         ****             state = IDLE;
 378:rdm.c         ****     } break;
 379:rdm.c         **** 
 380:rdm.c         ****     case DESTINATION_UID: {
 381:rdm.c         ****         if (dataByte != RDM.RDM_DevID[paramCount])
 1139              		.loc 1 381 0
 1140 0048 614A     		ldr	r2, .L173+12
 1141 004a 6249     		ldr	r1, .L173+16
 1142 004c 1378     		ldrb	r3, [r2]	@ zero_extendqisi2
 1143 004e C95C     		ldrb	r1, [r1, r3]	@ zero_extendqisi2
 1144 0050 8842     		cmp	r0, r1
 382:rdm.c         ****             isDevice = false;
 1145              		.loc 1 382 0
 1146 0052 1EBF     		ittt	ne
 1147 0054 604D     		ldrne	r5, .L173+20
 1148 0056 0026     		movne	r6, #0
 1149 0058 2E70     		strbne	r6, [r5]
 383:rdm.c         ****         if (dataByte != 0xFF)
 1150              		.loc 1 383 0
 1151 005a FF28     		cmp	r0, #255
 1152 005c 1AD0     		beq	.L146
 384:rdm.c         ****             isBroadcast = false;
 1153              		.loc 1 384 0
 1154 005e 5F4E     		ldr	r6, .L173+24
 1155 0060 0025     		movs	r5, #0
 385:rdm.c         ****         if (paramCount < 2 && dataByte != RDM.RDM_DevID[paramCount])
 1156              		.loc 1 385 0
 1157 0062 012B     		cmp	r3, #1
 384:rdm.c         ****             isBroadcast = false;
 1158              		.loc 1 384 0
 1159 0064 3570     		strb	r5, [r6]
 1160              		.loc 1 385 0
 1161 0066 17D9     		bls	.L161
 1162              	.L147:
 386:rdm.c         ****             isVendorcast = false;
 387:rdm.c         ****         if (paramCount >= 2 && dataByte != 0xFF)
 388:rdm.c         ****             isVendorcast = false;
 1163              		.loc 1 388 0
 1164 0068 5D49     		ldr	r1, .L173+28
 1165 006a 0D70     		strb	r5, [r1]
 1166              	.L160:
 389:rdm.c         **** 
 390:rdm.c         ****         RDMResPacket.bySourceUID[paramCount] = dataByte;
 1167              		.loc 1 390 0
 1168 006c 5749     		ldr	r1, .L173+8
 1169 006e 1944     		add	r1, r1, r3
 391:rdm.c         ****         paramCount++;
 1170              		.loc 1 391 0
 1171 0070 0133     		adds	r3, r3, #1
 1172 0072 DBB2     		uxtb	r3, r3
 392:rdm.c         **** 
 393:rdm.c         ****         if (paramCount >= 6) {
 1173              		.loc 1 393 0
ARM GAS  C:\Users\jimvr\AppData\Local\Temp\ccbnzlry.s 			page 31


 1174 0074 052B     		cmp	r3, #5
 390:rdm.c         ****         paramCount++;
 1175              		.loc 1 390 0
 1176 0076 4872     		strb	r0, [r1, #9]
 391:rdm.c         ****         paramCount++;
 1177              		.loc 1 391 0
 1178 0078 1370     		strb	r3, [r2]
 1179              		.loc 1 393 0
 1180 007a 40F2A180 		bls	.L126
 394:rdm.c         ****             if (isDevice || isVendorcast || isBroadcast) {
 1181              		.loc 1 394 0
 1182 007e 564B     		ldr	r3, .L173+20
 1183 0080 1B78     		ldrb	r3, [r3]	@ zero_extendqisi2
 1184 0082 6BB9     		cbnz	r3, .L150
 1185              		.loc 1 394 0 is_stmt 0 discriminator 1
 1186 0084 564B     		ldr	r3, .L173+28
 1187 0086 1B78     		ldrb	r3, [r3]	@ zero_extendqisi2
 1188 0088 53B9     		cbnz	r3, .L150
 1189              		.loc 1 394 0 discriminator 2
 1190 008a 544B     		ldr	r3, .L173+24
 1191 008c 1B78     		ldrb	r3, [r3]	@ zero_extendqisi2
 1192 008e 3BB9     		cbnz	r3, .L150
 1193              	.LVL100:
 1194              	.L144:
 377:rdm.c         ****     } break;
 1195              		.loc 1 377 0 is_stmt 1
 1196 0090 0023     		movs	r3, #0
 1197 0092 6BE0     		b	.L172
 1198              	.LVL101:
 1199              	.L146:
 385:rdm.c         ****             isVendorcast = false;
 1200              		.loc 1 385 0
 1201 0094 012B     		cmp	r3, #1
 1202 0096 E9D8     		bhi	.L160
 1203              	.L161:
 1204 0098 8842     		cmp	r0, r1
 1205 009a E7D0     		beq	.L160
 386:rdm.c         ****         if (paramCount >= 2 && dataByte != 0xFF)
 1206              		.loc 1 386 0
 1207 009c 0025     		movs	r5, #0
 1208 009e E3E7     		b	.L147
 1209              	.L150:
 395:rdm.c         ****                 paramCount = 0;
 1210              		.loc 1 395 0
 1211 00a0 0023     		movs	r3, #0
 1212 00a2 1370     		strb	r3, [r2]
 396:rdm.c         ****                 state = SOURCE_UID;
 1213              		.loc 1 396 0
 1214 00a4 0423     		movs	r3, #4
 1215 00a6 61E0     		b	.L172
 1216              	.L133:
 397:rdm.c         ****             } else
 398:rdm.c         ****                 state = IDLE;
 399:rdm.c         ****         }
 400:rdm.c         ****     } break;
 401:rdm.c         **** 
 402:rdm.c         ****     case SOURCE_UID: {
ARM GAS  C:\Users\jimvr\AppData\Local\Temp\ccbnzlry.s 			page 32


 403:rdm.c         ****         RDMResPacket.byDestinationUID[paramCount++] = dataByte;
 1217              		.loc 1 403 0
 1218 00a8 4949     		ldr	r1, .L173+12
 1219 00aa 484D     		ldr	r5, .L173+8
 1220 00ac 0A78     		ldrb	r2, [r1]	@ zero_extendqisi2
 1221 00ae 531C     		adds	r3, r2, #1
 1222 00b0 DBB2     		uxtb	r3, r3
 1223 00b2 2A44     		add	r2, r2, r5
 404:rdm.c         ****         if (paramCount >= 6) {
 1224              		.loc 1 404 0
 1225 00b4 052B     		cmp	r3, #5
 403:rdm.c         ****         if (paramCount >= 6) {
 1226              		.loc 1 403 0
 1227 00b6 0B70     		strb	r3, [r1]
 1228 00b8 D070     		strb	r0, [r2, #3]
 1229              		.loc 1 404 0
 1230 00ba 40F28180 		bls	.L126
 405:rdm.c         ****             paramCount = 0;
 1231              		.loc 1 405 0
 1232 00be 0023     		movs	r3, #0
 1233 00c0 0B70     		strb	r3, [r1]
 406:rdm.c         ****             state = TRANSACTION_NUMBER;
 1234              		.loc 1 406 0
 1235 00c2 0523     		movs	r3, #5
 1236 00c4 52E0     		b	.L172
 1237              	.L134:
 407:rdm.c         ****         }
 408:rdm.c         ****     } break;
 409:rdm.c         **** 
 410:rdm.c         ****     case TRANSACTION_NUMBER: {
 411:rdm.c         ****         RDMResPacket.byTransactionNum = dataByte;
 1238              		.loc 1 411 0
 1239 00c6 414B     		ldr	r3, .L173+8
 1240 00c8 D873     		strb	r0, [r3, #15]
 412:rdm.c         ****         state = RESPONSE_TYPE;
 1241              		.loc 1 412 0
 1242 00ca 0623     		movs	r3, #6
 1243 00cc 4EE0     		b	.L172
 1244              	.L135:
 413:rdm.c         ****     } break;
 414:rdm.c         **** 
 415:rdm.c         ****     case RESPONSE_TYPE: {
 416:rdm.c         ****         RDMResPacket.byResponseType = dataByte;
 1245              		.loc 1 416 0
 1246 00ce 3F4B     		ldr	r3, .L173+8
 1247 00d0 1874     		strb	r0, [r3, #16]
 417:rdm.c         ****         state = MESSAGE_COUNT;
 1248              		.loc 1 417 0
 1249 00d2 0723     		movs	r3, #7
 1250 00d4 4AE0     		b	.L172
 1251              	.L136:
 418:rdm.c         ****     } break;
 419:rdm.c         **** 
 420:rdm.c         ****     case MESSAGE_COUNT: {
 421:rdm.c         ****         if (!dataByte) {
 1252              		.loc 1 421 0
 1253 00d6 0028     		cmp	r0, #0
ARM GAS  C:\Users\jimvr\AppData\Local\Temp\ccbnzlry.s 			page 33


 1254 00d8 DAD1     		bne	.L144
 422:rdm.c         ****             RDMResPacket.byMessageCount = dataByte;
 1255              		.loc 1 422 0
 1256 00da 3C4B     		ldr	r3, .L173+8
 1257 00dc 5874     		strb	r0, [r3, #17]
 423:rdm.c         ****             state = SUB_DEVICE;
 1258              		.loc 1 423 0
 1259 00de 0823     		movs	r3, #8
 1260 00e0 44E0     		b	.L172
 1261              	.L137:
 424:rdm.c         ****         } else
 425:rdm.c         ****             state = IDLE;
 426:rdm.c         ****     } break;
 427:rdm.c         **** 
 428:rdm.c         ****     case SUB_DEVICE: {
 429:rdm.c         ****         RDMResPacket.uiSubDevice = dataByte << (paramCount ? 8 : 0);
 1262              		.loc 1 429 0
 1263 00e2 3B4A     		ldr	r2, .L173+12
 1264 00e4 1378     		ldrb	r3, [r2]	@ zero_extendqisi2
 1265 00e6 002B     		cmp	r3, #0
 1266 00e8 14BF     		ite	ne
 1267 00ea 0821     		movne	r1, #8
 1268 00ec 0021     		moveq	r1, #0
 430:rdm.c         ****         paramCount++;
 1269              		.loc 1 430 0
 1270 00ee 0133     		adds	r3, r3, #1
 429:rdm.c         ****         paramCount++;
 1271              		.loc 1 429 0
 1272 00f0 8840     		lsls	r0, r0, r1
 1273              	.LVL102:
 1274              		.loc 1 430 0
 1275 00f2 DBB2     		uxtb	r3, r3
 429:rdm.c         ****         paramCount++;
 1276              		.loc 1 429 0
 1277 00f4 3549     		ldr	r1, .L173+8
 431:rdm.c         ****         if (paramCount >= 2) {
 1278              		.loc 1 431 0
 1279 00f6 012B     		cmp	r3, #1
 429:rdm.c         ****         paramCount++;
 1280              		.loc 1 429 0
 1281 00f8 4882     		strh	r0, [r1, #18]	@ unaligned
 1282              		.loc 1 431 0
 1283 00fa 01D8     		bhi	.L152
 430:rdm.c         ****         paramCount++;
 1284              		.loc 1 430 0
 1285 00fc 1370     		strb	r3, [r2]
 1286 00fe 70BD     		pop	{r4, r5, r6, pc}
 1287              	.L152:
 432:rdm.c         ****             paramCount = 0;
 1288              		.loc 1 432 0
 1289 0100 0023     		movs	r3, #0
 1290 0102 1370     		strb	r3, [r2]
 433:rdm.c         ****             state = COMMAND_CLASS;
 1291              		.loc 1 433 0
 1292 0104 0923     		movs	r3, #9
 1293 0106 31E0     		b	.L172
 1294              	.LVL103:
ARM GAS  C:\Users\jimvr\AppData\Local\Temp\ccbnzlry.s 			page 34


 1295              	.L138:
 434:rdm.c         ****         }
 435:rdm.c         ****     } break;
 436:rdm.c         **** 
 437:rdm.c         ****     case COMMAND_CLASS: {
 438:rdm.c         ****         RDMResPacket.byCommandClass = dataByte;
 1296              		.loc 1 438 0
 1297 0108 304B     		ldr	r3, .L173+8
 1298 010a 1875     		strb	r0, [r3, #20]
 439:rdm.c         ****         state = PARAMETER_ID;
 1299              		.loc 1 439 0
 1300 010c 0A23     		movs	r3, #10
 1301 010e 2DE0     		b	.L172
 1302              	.L139:
 440:rdm.c         ****     } break;
 441:rdm.c         **** 
 442:rdm.c         ****     case PARAMETER_ID: {
 443:rdm.c         ****         RDMResPacket.uiParameterID |= dataByte << (paramCount ? 8 : 0);
 1303              		.loc 1 443 0
 1304 0110 2F49     		ldr	r1, .L173+12
 1305 0112 2E4D     		ldr	r5, .L173+8
 1306 0114 0B78     		ldrb	r3, [r1]	@ zero_extendqisi2
 1307 0116 B5F91560 		ldrsh	r6, [r5, #21]	@ unaligned
 1308 011a 002B     		cmp	r3, #0
 1309 011c 14BF     		ite	ne
 1310 011e 0822     		movne	r2, #8
 1311 0120 0022     		moveq	r2, #0
 444:rdm.c         ****         paramCount++;
 1312              		.loc 1 444 0
 1313 0122 0133     		adds	r3, r3, #1
 443:rdm.c         ****         paramCount++;
 1314              		.loc 1 443 0
 1315 0124 9040     		lsls	r0, r0, r2
 1316              	.LVL104:
 1317              		.loc 1 444 0
 1318 0126 DBB2     		uxtb	r3, r3
 443:rdm.c         ****         paramCount++;
 1319              		.loc 1 443 0
 1320 0128 3043     		orrs	r0, r0, r6
 445:rdm.c         ****         if (paramCount >= 2) {
 1321              		.loc 1 445 0
 1322 012a 012B     		cmp	r3, #1
 443:rdm.c         ****         paramCount++;
 1323              		.loc 1 443 0
 1324 012c A5F81500 		strh	r0, [r5, #21]	@ unaligned
 1325              		.loc 1 445 0
 1326 0130 01D8     		bhi	.L154
 444:rdm.c         ****         paramCount++;
 1327              		.loc 1 444 0
 1328 0132 0B70     		strb	r3, [r1]
 1329 0134 70BD     		pop	{r4, r5, r6, pc}
 1330              	.L154:
 446:rdm.c         ****             paramCount = 0;
 1331              		.loc 1 446 0
 1332 0136 0023     		movs	r3, #0
 1333 0138 0B70     		strb	r3, [r1]
 447:rdm.c         ****             state = PARAMETER_LENGTH;
ARM GAS  C:\Users\jimvr\AppData\Local\Temp\ccbnzlry.s 			page 35


 1334              		.loc 1 447 0
 1335 013a 0B23     		movs	r3, #11
 1336 013c 16E0     		b	.L172
 1337              	.LVL105:
 1338              	.L140:
 448:rdm.c         ****         }
 449:rdm.c         ****     } break;
 450:rdm.c         **** 
 451:rdm.c         ****     case PARAMETER_LENGTH: {
 452:rdm.c         ****         if (dataByte == RDMResPacket.byMessageLength - 24) {
 1339              		.loc 1 452 0
 1340 013e 234A     		ldr	r2, .L173+8
 1341 0140 9378     		ldrb	r3, [r2, #2]	@ zero_extendqisi2
 1342 0142 183B     		subs	r3, r3, #24
 1343 0144 9842     		cmp	r0, r3
 1344 0146 A3D1     		bne	.L144
 453:rdm.c         ****             RDMResPacket.byParameterLength = dataByte;
 1345              		.loc 1 453 0
 1346 0148 D075     		strb	r0, [r2, #23]
 454:rdm.c         ****             if (dataByte)
 1347              		.loc 1 454 0
 1348 014a 70B1     		cbz	r0, .L171
 455:rdm.c         ****                 state = PARAMETER_DATA;
 1349              		.loc 1 455 0
 1350 014c 0C23     		movs	r3, #12
 1351 014e 0DE0     		b	.L172
 1352              	.L141:
 456:rdm.c         ****             else
 457:rdm.c         ****                 state = CHECKSUM;
 458:rdm.c         ****         } else
 459:rdm.c         ****             state = IDLE;
 460:rdm.c         ****     } break;
 461:rdm.c         **** 
 462:rdm.c         ****     case PARAMETER_DATA: {
 463:rdm.c         ****         RDMResPacket.byParameterData[paramCount++] = dataByte;
 1353              		.loc 1 463 0
 1354 0150 1F49     		ldr	r1, .L173+12
 1355 0152 1E4D     		ldr	r5, .L173+8
 1356 0154 0A78     		ldrb	r2, [r1]	@ zero_extendqisi2
 1357 0156 531C     		adds	r3, r2, #1
 1358 0158 2A44     		add	r2, r2, r5
 1359 015a 1076     		strb	r0, [r2, #24]
 464:rdm.c         ****         if (paramCount >= RDMResPacket.byParameterLength) {
 1360              		.loc 1 464 0
 1361 015c EA7D     		ldrb	r2, [r5, #23]	@ zero_extendqisi2
 463:rdm.c         ****         if (paramCount >= RDMResPacket.byParameterLength) {
 1362              		.loc 1 463 0
 1363 015e DBB2     		uxtb	r3, r3
 1364              		.loc 1 464 0
 1365 0160 9A42     		cmp	r2, r3
 463:rdm.c         ****         if (paramCount >= RDMResPacket.byParameterLength) {
 1366              		.loc 1 463 0
 1367 0162 0B70     		strb	r3, [r1]
 1368              		.loc 1 464 0
 1369 0164 2CD8     		bhi	.L126
 465:rdm.c         ****             paramCount = 0;
 1370              		.loc 1 465 0
ARM GAS  C:\Users\jimvr\AppData\Local\Temp\ccbnzlry.s 			page 36


 1371 0166 0023     		movs	r3, #0
 1372 0168 0B70     		strb	r3, [r1]
 1373              	.L171:
 466:rdm.c         ****             state = CHECKSUM;
 1374              		.loc 1 466 0
 1375 016a 0D23     		movs	r3, #13
 1376              	.LVL106:
 1377              	.L172:
 1378 016c 2370     		strb	r3, [r4]
 1379 016e 70BD     		pop	{r4, r5, r6, pc}
 1380              	.LVL107:
 1381              	.L142:
 467:rdm.c         ****         }
 468:rdm.c         ****     } break;
 469:rdm.c         **** 
 470:rdm.c         ****     case CHECKSUM: {
 471:rdm.c         ****         receivedChecksum |= dataByte << (paramCount ? 0 : 8);
 1382              		.loc 1 471 0
 1383 0170 1749     		ldr	r1, .L173+12
 1384 0172 1C4D     		ldr	r5, .L173+32
 1385 0174 0B78     		ldrb	r3, [r1]	@ zero_extendqisi2
 1386 0176 002B     		cmp	r3, #0
 1387 0178 14BF     		ite	ne
 1388 017a 0022     		movne	r2, #0
 1389 017c 0822     		moveq	r2, #8
 1390 017e 9040     		lsls	r0, r0, r2
 1391              	.LVL108:
 1392 0180 2A88     		ldrh	r2, [r5]
 472:rdm.c         ****         paramCount++;
 1393              		.loc 1 472 0
 1394 0182 0133     		adds	r3, r3, #1
 1395 0184 DBB2     		uxtb	r3, r3
 471:rdm.c         ****         paramCount++;
 1396              		.loc 1 471 0
 1397 0186 1043     		orrs	r0, r0, r2
 1398 0188 80B2     		uxth	r0, r0
 473:rdm.c         ****         if (paramCount >= 2) {
 1399              		.loc 1 473 0
 1400 018a 012B     		cmp	r3, #1
 471:rdm.c         ****         paramCount++;
 1401              		.loc 1 471 0
 1402 018c 2880     		strh	r0, [r5]	@ movhi
 472:rdm.c         ****         paramCount++;
 1403              		.loc 1 472 0
 1404 018e 0B70     		strb	r3, [r1]
 1405              		.loc 1 473 0
 1406 0190 16D9     		bls	.L126
 474:rdm.c         ****             if (receivedChecksum == calculatedChecksum + 0xCC) {
 1407              		.loc 1 474 0
 1408 0192 0D4B     		ldr	r3, .L173+4
 1409 0194 1B88     		ldrh	r3, [r3]
 1410 0196 CC33     		adds	r3, r3, #204
 1411 0198 9842     		cmp	r0, r3
 1412 019a 0FD1     		bne	.L157
 1413              	.LVL109:
 1414              	.LBB15:
 475:rdm.c         ****                 PACKET_DEST PacketDest = UNKNOWN;
ARM GAS  C:\Users\jimvr\AppData\Local\Temp\ccbnzlry.s 			page 37


 476:rdm.c         **** 
 477:rdm.c         ****                 if (isDevice)
 1415              		.loc 1 477 0
 1416 019c 0E4B     		ldr	r3, .L173+20
 478:rdm.c         ****                     PacketDest = DEVICE;
 479:rdm.c         ****                 if (isBroadcast)
 480:rdm.c         ****                     PacketDest = BROADCAST;
 481:rdm.c         ****                 if (isVendorcast)
 482:rdm.c         ****                     PacketDest = VENDORCAST;
 483:rdm.c         **** 
 484:rdm.c         ****                 RDM_HandleRequest(&RDMResPacket, PacketDest);
 1417              		.loc 1 484 0
 1418 019e 0B48     		ldr	r0, .L173+8
 477:rdm.c         ****                     PacketDest = DEVICE;
 1419              		.loc 1 477 0
 1420 01a0 1978     		ldrb	r1, [r3]	@ zero_extendqisi2
 1421              	.LVL110:
 479:rdm.c         ****                     PacketDest = BROADCAST;
 1422              		.loc 1 479 0
 1423 01a2 0E4B     		ldr	r3, .L173+24
 1424 01a4 1B78     		ldrb	r3, [r3]	@ zero_extendqisi2
 475:rdm.c         **** 
 1425              		.loc 1 475 0
 1426 01a6 002B     		cmp	r3, #0
 481:rdm.c         ****                     PacketDest = VENDORCAST;
 1427              		.loc 1 481 0
 1428 01a8 0D4B     		ldr	r3, .L173+28
 475:rdm.c         **** 
 1429              		.loc 1 475 0
 1430 01aa 18BF     		it	ne
 1431 01ac 0221     		movne	r1, #2
 1432              	.LVL111:
 481:rdm.c         ****                     PacketDest = VENDORCAST;
 1433              		.loc 1 481 0
 1434 01ae 1B78     		ldrb	r3, [r3]	@ zero_extendqisi2
 482:rdm.c         **** 
 1435              		.loc 1 482 0
 1436 01b0 002B     		cmp	r3, #0
 1437              	.LVL112:
 1438              		.loc 1 484 0
 1439 01b2 18BF     		it	ne
 1440 01b4 0321     		movne	r1, #3
 1441              	.LVL113:
 1442 01b6 FFF7FEFF 		bl	RDM_HandleRequest
 1443              	.LVL114:
 1444              	.LBE15:
 1445 01ba 69E7     		b	.L144
 1446              	.L157:
 485:rdm.c         ****             } else {
 486:rdm.c         ****                 CY_NOP;
 1447              		.loc 1 486 0
 1448              		.syntax unified
 1449              	@ 486 "rdm.c" 1
 1450 01bc 00BF     		NOP
 1451              	
 1452              	@ 0 "" 2
 1453              		.thumb
ARM GAS  C:\Users\jimvr\AppData\Local\Temp\ccbnzlry.s 			page 38


 1454              		.syntax unified
 1455 01be 67E7     		b	.L144
 1456              	.L126:
 1457 01c0 70BD     		pop	{r4, r5, r6, pc}
 1458              	.L174:
 1459 01c2 00BF     		.align	2
 1460              	.L173:
 1461 01c4 00000000 		.word	state
 1462 01c8 00000000 		.word	calculatedChecksum
 1463 01cc 00000000 		.word	RDMResPacket
 1464 01d0 00000000 		.word	paramCount
 1465 01d4 00000000 		.word	RDM
 1466 01d8 00000000 		.word	isDevice
 1467 01dc 00000000 		.word	isBroadcast
 1468 01e0 00000000 		.word	isVendorcast
 1469 01e4 00000000 		.word	receivedChecksum
 1470              		.cfi_endproc
 1471              	.LFE9:
 1472              		.size	RDM_AcceptByte, .-RDM_AcceptByte
 1473              		.comm	IsSlave,1,1
 1474              		.comm	isInTempFault,1,1
 1475              		.comm	uiTempFaultCount,4,4
 1476              		.comm	structeeprom,2,1
 1477              		.section	.rodata
 1478              		.set	.LANCHOR0,. + 0
 1479              	.LC0:
 1480 0000 FE       		.byte	-2
 1481 0001 FE       		.byte	-2
 1482 0002 FE       		.byte	-2
 1483 0003 FE       		.byte	-2
 1484 0004 FE       		.byte	-2
 1485 0005 FE       		.byte	-2
 1486 0006 FE       		.byte	-2
 1487 0007 AA       		.byte	-86
 1488 0008 AA       		.byte	-86
 1489 0009 55       		.byte	85
 1490 000a AA       		.byte	-86
 1491 000b 55       		.byte	85
 1492 000c AA       		.byte	-86
 1493 000d 55       		.byte	85
 1494 000e AA       		.byte	-86
 1495 000f 55       		.byte	85
 1496 0010 AA       		.byte	-86
 1497 0011 55       		.byte	85
 1498 0012 AA       		.byte	-86
 1499 0013 55       		.byte	85
 1500 0014 AA       		.byte	-86
 1501 0015 55       		.byte	85
 1502 0016 AA       		.byte	-86
 1503 0017 55       		.byte	85
 1504              		.section	.rodata.str1.1,"aMS",%progbits,1
 1505              	.LC1:
 1506 0000 7625642E 		.ascii	"v%d.%02d build %d\000"
 1506      25303264 
 1506      20627569 
 1506      6C642025 
 1506      6400
ARM GAS  C:\Users\jimvr\AppData\Local\Temp\ccbnzlry.s 			page 39


 1507              		.bss
 1508              		.set	.LANCHOR1,. + 0
 1509              		.type	discMuteFlag.5489, %object
 1510              		.size	discMuteFlag.5489, 1
 1511              	discMuteFlag.5489:
 1512 0000 00       		.space	1
 1513              		.text
 1514              	.Letext0:
 1515              		.file 2 "cytypes.h"
 1516              		.file 3 "rdm.h"
 1517              		.file 4 "main.h"
 1518              		.file 5 "<built-in>"
 1519              		.file 6 "c:\\program files (x86)\\cypress\\psoc creator\\4.1\\psoc creator\\import\\gnu\\arm\\5.4.
 1520              		.file 7 "queue.h"